(dp1
(S'73218957'
p2
S'263740710728114177C'
tp3
ccopy_reg
_reconstructor
p4
(cinstance
Instance
p5
c__builtin__
object
p6
NtRp7
(dp8
S'task'
p9
S'A'
sS'uid'
p10
g2
sS'keyword'
p11
NsS'label'
p12
S'objective'
p13
sS'endpos'
p14
I24
sS'key'
p15
g3
sS'sid'
p16
S'263740710728114177'
p17
sS'startpos'
p18
I9
sbs(S'287477398'
p19
S'100185002276425728E'
tp20
g4
(g5
g6
NtRp21
(dp22
g9
S'A'
sg10
g19
sg11
Nsg12
S'objective'
p23
sg14
I23
sg15
g20
sg16
S'100185002276425728'
p24
sg18
I23
sbs(S'31037343'
p25
S'238453939270471680H'
tp26
g4
(g5
g6
NtRp27
(dp28
g9
S'A'
sg10
g25
sg11
Nsg12
S'positive'
p29
sg14
I22
sg15
g26
sg16
S'238453939270471680'
p30
sg18
I22
sbs(S'320428296'
p31
S'253716160393138177B'
tp32
g4
(g5
g6
NtRp33
(dp34
g9
S'A'
sg10
g31
sg11
Nsg12
S'positive'
p35
sg14
I14
sg15
g32
sg16
S'253716160393138177'
p36
sg18
I11
sbs(S'227179643'
p37
S'118167201797775360A'
tp38
g4
(g5
g6
NtRp39
(dp40
g9
S'A'
sg10
g37
sg11
Nsg12
S'objective'
p41
sg14
I8
sg15
g38
sg16
S'118167201797775360'
p42
sg18
I0
sbs(S'247855533'
p43
S'188863888765370368C'
tp44
g4
(g5
g6
NtRp45
(dp46
g9
S'A'
sg10
g43
sg11
Nsg12
S'objective'
p47
sg14
I14
sg15
g44
sg16
S'188863888765370368'
p48
sg18
I9
sbs(S'69508768'
p49
S'101814905275039744C'
tp50
g4
(g5
g6
NtRp51
(dp52
g9
S'A'
sg10
g49
sg11
Nsg12
S'objective'
p53
sg14
I24
sg15
g50
sg16
S'101814905275039744'
p54
sg18
I22
sbs(S'20756067'
p55
S'259374136181288960D'
tp56
g4
(g5
g6
NtRp57
(dp58
g9
S'A'
sg10
g55
sg11
Nsg12
S'positive'
p59
sg14
I17
sg15
g56
sg16
S'259374136181288960'
p60
sg18
I17
sbs(S'147899715'
p61
S'263804057913815040E'
tp62
g4
(g5
g6
NtRp63
(dp64
g9
S'A'
sg10
g61
sg11
Nsg12
S'objective'
p65
sg14
I25
sg15
g62
sg16
S'263804057913815040'
p66
sg18
I20
sbs(S'116628196'
p67
S'203977468904878081C'
tp68
g4
(g5
g6
NtRp69
(dp70
g9
S'A'
sg10
g67
sg11
Nsg12
S'objective'
p71
sg14
I9
sg15
g68
sg16
S'203977468904878081'
p72
sg18
I4
sbs(S'163041118'
p73
S'261390324688097280B'
tp74
g4
(g5
g6
NtRp75
(dp76
g9
S'A'
sg10
g73
sg11
Nsg12
S'positive'
p77
sg14
I8
sg15
g74
sg16
S'261390324688097280'
p78
sg18
I8
sbs(S'148181135'
p79
S'104216608972607488B'
tp80
g4
(g5
g6
NtRp81
(dp82
g9
S'A'
sg10
g79
sg11
Nsg12
S'positive'
p83
sg14
I5
sg15
g80
sg16
S'104216608972607488'
p84
sg18
I5
sbs(S'76587091'
p85
S'264251347195551744A'
tp86
g4
(g5
g6
NtRp87
(dp88
g9
S'A'
sg10
g85
sg11
Nsg12
S'positive'
p89
sg14
I3
sg15
g86
sg16
S'264251347195551744'
p90
sg18
I0
sbs(S'866709174'
p91
S'262501520535339008A'
tp92
g4
(g5
g6
NtRp93
(dp94
g9
S'A'
sg10
g91
sg11
Nsg12
S'objective'
p95
sg14
I3
sg15
g92
sg16
S'262501520535339008'
p96
sg18
I0
sbs(S'56973429'
p97
S'262816980690673664A'
tp98
g4
(g5
g6
NtRp99
(dp100
g9
S'A'
sg10
g97
sg11
Nsg12
S'objective'
p101
sg14
I13
sg15
g98
sg16
S'262816980690673664'
p102
sg18
I0
sbs(S'231663617'
p103
S'100198972324454400C'
tp104
g4
(g5
g6
NtRp105
(dp106
g9
S'A'
sg10
g103
sg11
Nsg12
S'objective'
p107
sg14
I21
sg15
g104
sg16
S'100198972324454400'
p108
sg18
I6
sbs(S'18095847'
p109
S'118152182263586816C'
tp110
g4
(g5
g6
NtRp111
(dp112
g9
S'A'
sg10
g109
sg11
Nsg12
S'objective'
p113
sg14
I17
sg15
g110
sg16
S'118152182263586816'
p114
sg18
I13
sbs(S'231241483'
p115
S'255370271702265857A'
tp116
g4
(g5
g6
NtRp117
(dp118
g9
S'A'
sg10
g115
sg11
Nsg12
S'objective'
p119
sg14
I17
sg15
g116
sg16
S'255370271702265857'
p120
sg18
I0
sbs(S'38110141'
p121
S'100333959212310528A'
tp122
g4
(g5
g6
NtRp123
(dp124
g9
S'A'
sg10
g121
sg11
Nsg12
S'objective'
p125
sg14
I19
sg15
g122
sg16
S'100333959212310528'
p126
sg18
I0
sbs(S'329317762'
p127
S'118152301532823552D'
tp128
g4
(g5
g6
NtRp129
(dp130
g9
S'A'
sg10
g127
sg11
Nsg12
S'negative'
p131
sg14
I13
sg15
g128
sg16
S'118152301532823552'
p132
sg18
I12
sbs(S'353946567'
p133
S'108201763772960769A'
tp134
g4
(g5
g6
NtRp135
(dp136
g9
S'A'
sg10
g133
sg11
Nsg12
S'objective'
p137
sg14
I11
sg15
g134
sg16
S'108201763772960769'
p138
sg18
I0
sbs(S'78754808'
p139
S'115947264266088448A'
tp140
g4
(g5
g6
NtRp141
(dp142
g9
S'A'
sg10
g139
sg11
Nsg12
S'objective'
p143
sg14
I22
sg15
g140
sg16
S'115947264266088448'
p144
sg18
I0
sbs(S'20878375'
p145
S'224570943807307776D'
tp146
g4
(g5
g6
NtRp147
(dp148
g9
S'A'
sg10
g145
sg11
Nsg12
S'negative'
p149
sg14
I19
sg15
g146
sg16
S'224570943807307776'
p150
sg18
I14
sbs(S'252626004'
p151
S'104214530766274560B'
tp152
g4
(g5
g6
NtRp153
(dp154
g9
S'A'
sg10
g151
sg11
Nsg12
S'positive'
p155
sg14
I20
sg15
g152
sg16
S'104214530766274560'
p156
sg18
I20
sbs(S'50025826'
p157
S'101451016377085952A'
tp158
g4
(g5
g6
NtRp159
(dp160
g9
S'A'
sg10
g157
sg11
Nsg12
S'objective'
p161
sg14
I8
sg15
g158
sg16
S'101451016377085952'
p162
sg18
I0
sbs(S'228498230'
p163
S'108261715120099328A'
tp164
g4
(g5
g6
NtRp165
(dp166
g9
S'A'
sg10
g163
sg11
Nsg12
S'objective'
p167
sg14
I1
sg15
g164
sg16
S'108261715120099328'
p168
sg18
I0
sbs(S'198284834'
p169
S'245515667359539201B'
tp170
g4
(g5
g6
NtRp171
(dp172
g9
S'A'
sg10
g169
sg11
Nsg12
S'positive'
p173
sg14
I12
sg15
g170
sg16
S'245515667359539201'
p174
sg18
I12
sbs(S'203740421'
p175
S'106585520066404352B'
tp176
g4
(g5
g6
NtRp177
(dp178
g9
S'A'
sg10
g175
sg11
Nsg12
S'negative'
p179
sg14
I14
sg15
g176
sg16
S'106585520066404352'
p180
sg18
I13
sbs(S'27781218'
p181
S'264185830581604352A'
tp182
g4
(g5
g6
NtRp183
(dp184
g9
S'A'
sg10
g181
sg11
Nsg12
S'objective'
p185
sg14
I1
sg15
g182
sg16
S'264185830581604352'
p186
sg18
I0
sbs(S'368265063'
p187
S'254579556311265280E'
tp188
g4
(g5
g6
NtRp189
(dp190
g9
S'A'
sg10
g187
sg11
Nsg12
S'objective'
p191
sg14
I18
sg15
g188
sg16
S'254579556311265280'
p192
sg18
I17
sbs(S'178537084'
p193
S'100651450576801792B'
tp194
g4
(g5
g6
NtRp195
(dp196
g9
S'A'
sg10
g193
sg11
Nsg12
S'objective'
p197
sg14
I20
sg15
g194
sg16
S'100651450576801792'
p198
sg18
I4
sbs(S'114905640'
p199
S'104743886278238209C'
tp200
g4
(g5
g6
NtRp201
(dp202
g9
S'A'
sg10
g199
sg11
Nsg12
S'objective'
p203
sg14
I4
sg15
g200
sg16
S'104743886278238209'
p204
sg18
I4
sbs(S'239420854'
p205
S'103504889249923072A'
tp206
g4
(g5
g6
NtRp207
(dp208
g9
S'A'
sg10
g205
sg11
Nsg12
S'objective'
p209
sg14
I11
sg15
g206
sg16
S'103504889249923072'
p210
sg18
I0
sbs(S'141049123'
p211
S'263096225274925056A'
tp212
g4
(g5
g6
NtRp213
(dp214
g9
S'A'
sg10
g211
sg11
Nsg12
S'objective'
p215
sg14
I23
sg15
g212
sg16
S'263096225274925056'
p216
sg18
I0
sbs(S'32864602'
p217
S'263553226576633856A'
tp218
g4
(g5
g6
NtRp219
(dp220
g9
S'A'
sg10
g217
sg11
Nsg12
S'objective'
p221
sg14
I14
sg15
g218
sg16
S'263553226576633856'
p222
sg18
I0
sbs(S'21868696'
p223
S'262537578459303936A'
tp224
g4
(g5
g6
NtRp225
(dp226
g9
S'A'
sg10
g223
sg11
Nsg12
S'objective'
p227
sg14
I5
sg15
g224
sg16
S'262537578459303936'
p228
sg18
I0
sbs(S'346400200'
p229
S'264204445036974081D'
tp230
g4
(g5
g6
NtRp231
(dp232
g9
S'A'
sg10
g229
sg11
Nsg12
S'positive'
p233
sg14
I18
sg15
g230
sg16
S'264204445036974081'
p234
sg18
I18
sbs(S'418054364'
p235
S'264189461473157120A'
tp236
g4
(g5
g6
NtRp237
(dp238
g9
S'A'
sg10
g235
sg11
Nsg12
S'objective'
p239
sg14
I0
sg15
g236
sg16
S'264189461473157120'
p240
sg18
I0
sbs(S'242341937'
p241
S'248370653286240256A'
tp242
g4
(g5
g6
NtRp243
(dp244
g9
S'A'
sg10
g241
sg11
Nsg12
S'positive'
p245
sg14
I0
sg15
g242
sg16
S'248370653286240256'
p246
sg18
I0
sbs(S'612415338'
p247
S'263489626793185280D'
tp248
g4
(g5
g6
NtRp249
(dp250
g9
S'A'
sg10
g247
sg11
Nsg12
S'positive'
p251
sg14
I15
sg15
g248
sg16
S'263489626793185280'
p252
sg18
I13
sbs(S'118557560'
p253
S'102902680632045568A'
tp254
g4
(g5
g6
NtRp255
(dp256
g9
S'A'
sg10
g253
sg11
Nsg12
S'objective'
p257
sg14
I1
sg15
g254
sg16
S'102902680632045568'
p258
sg18
I0
sbs(S'43099065'
p259
S'100488964372307968A'
tp260
g4
(g5
g6
NtRp261
(dp262
g9
S'A'
sg10
g259
sg11
Nsg12
S'objective'
p263
sg14
I6
sg15
g260
sg16
S'100488964372307968'
p264
sg18
I0
sbs(S'20878375'
p265
S'224570943807307776B'
tp266
g4
(g5
g6
NtRp267
(dp268
g9
S'A'
sg10
g265
sg11
Nsg12
S'negative'
p269
sg14
I8
sg15
g266
sg16
S'224570943807307776'
p270
sg18
I7
sbs(S'167947794'
p271
S'118167524167782401C'
tp272
g4
(g5
g6
NtRp273
(dp274
g9
S'A'
sg10
g271
sg11
Nsg12
S'objective'
p275
sg14
I12
sg15
g272
sg16
S'118167524167782401'
p276
sg18
I11
sbs(S'249320924'
p277
S'100046752241041409A'
tp278
g4
(g5
g6
NtRp279
(dp280
g9
S'A'
sg10
g277
sg11
Nsg12
S'objective'
p281
sg14
I2
sg15
g278
sg16
S'100046752241041409'
p282
sg18
I0
sbs(S'165404022'
p283
S'118166757763584000C'
tp284
g4
(g5
g6
NtRp285
(dp286
g9
S'A'
sg10
g283
sg11
Nsg12
S'objective'
p287
sg14
I20
sg15
g284
sg16
S'118166757763584000'
p288
sg18
I11
sbs(S'231663617'
p289
S'100198972324454400A'
tp290
g4
(g5
g6
NtRp291
(dp292
g9
S'A'
sg10
g289
sg11
Nsg12
S'objective'
p293
sg14
I2
sg15
g290
sg16
S'100198972324454400'
p294
sg18
I0
sbs(S'147899715'
p295
S'263804057913815040B'
tp296
g4
(g5
g6
NtRp297
(dp298
g9
S'A'
sg10
g295
sg11
Nsg12
S'negative'
p299
sg14
I4
sg15
g296
sg16
S'263804057913815040'
p300
sg18
I4
sbs(S'417509923'
p301
S'263366711196123137A'
tp302
g4
(g5
g6
NtRp303
(dp304
g9
S'A'
sg10
g301
sg11
Nsg12
S'objective'
p305
sg14
I0
sg15
g302
sg16
S'263366711196123137'
p306
sg18
I0
sbs(S'733817984'
p307
S'251727127060303873G'
tp308
g4
(g5
g6
NtRp309
(dp310
g9
S'A'
sg10
g307
sg11
Nsg12
S'objective'
p311
sg14
I23
sg15
g308
sg16
S'251727127060303873'
p312
sg18
I23
sbs(S'17491872'
p313
S'104651390776918016B'
tp314
g4
(g5
g6
NtRp315
(dp316
g9
S'A'
sg10
g313
sg11
Nsg12
S'objective'
p317
sg14
I4
sg15
g314
sg16
S'104651390776918016'
p318
sg18
I4
sbs(S'21137575'
p319
S'264264628408832000B'
tp320
g4
(g5
g6
NtRp321
(dp322
g9
S'A'
sg10
g319
sg11
Nsg12
S'negative'
p323
sg14
I13
sg15
g320
sg16
S'264264628408832000'
p324
sg18
I10
sbs(S'148103434'
p325
S'103233636798701568B'
tp326
g4
(g5
g6
NtRp327
(dp328
g9
S'A'
sg10
g325
sg11
Nsg12
S'objective'
p329
sg14
I22
sg15
g326
sg16
S'103233636798701568'
p330
sg18
I3
sbs(S'774584642'
p331
S'242718317050212352C'
tp332
g4
(g5
g6
NtRp333
(dp334
g9
S'A'
sg10
g331
sg11
Nsg12
S'objective'
p335
sg14
I22
sg15
g332
sg16
S'242718317050212352'
p336
sg18
I11
sbs(S'214307858'
p337
S'101496696877486080A'
tp338
g4
(g5
g6
NtRp339
(dp340
g9
S'A'
sg10
g337
sg11
Nsg12
S'objective'
p341
sg14
I0
sg15
g338
sg16
S'101496696877486080'
p342
sg18
I0
sbs(S'464690043'
p343
S'253560559868456960B'
tp344
g4
(g5
g6
NtRp345
(dp346
g9
S'A'
sg10
g343
sg11
Nsg12
S'positive'
p347
sg14
I10
sg15
g344
sg16
S'253560559868456960'
p348
sg18
I10
sbs(S'501946653'
p349
S'260889070509621249D'
tp350
g4
(g5
g6
NtRp351
(dp352
g9
S'A'
sg10
g349
sg11
Nsg12
S'objective'
p353
sg14
I20
sg15
g350
sg16
S'260889070509621249'
p354
sg18
I17
sbs(S'35990273'
p355
S'247031555493621762B'
tp356
g4
(g5
g6
NtRp357
(dp358
g9
S'A'
sg10
g355
sg11
Nsg12
S'positive'
p359
sg14
I18
sg15
g356
sg16
S'247031555493621762'
p360
sg18
I18
sbs(S'163998890'
p361
S'259048276672782336B'
tp362
g4
(g5
g6
NtRp363
(dp364
g9
S'A'
sg10
g361
sg11
Nsg12
S'positive'
p365
sg14
I10
sg15
g362
sg16
S'259048276672782336'
p366
sg18
I10
sbs(S'16397103'
p367
S'101438889968939008A'
tp368
g4
(g5
g6
NtRp369
(dp370
g9
S'A'
sg10
g367
sg11
Nsg12
S'objective'
p371
sg14
I9
sg15
g368
sg16
S'101438889968939008'
p372
sg18
I0
sbs(S'198814114'
p373
S'257824517202771969C'
tp374
g4
(g5
g6
NtRp375
(dp376
g9
S'A'
sg10
g373
sg11
Nsg12
S'objective'
p377
sg14
I11
sg15
g374
sg16
S'257824517202771969'
p378
sg18
I2
sbs(S'112595760'
p379
S'108034287944744960C'
tp380
g4
(g5
g6
NtRp381
(dp382
g9
S'A'
sg10
g379
sg11
Nsg12
S'objective'
p383
sg14
I12
sg15
g380
sg16
S'108034287944744960'
p384
sg18
I8
sbs(S'103386218'
p385
S'246271122696450048C'
tp386
g4
(g5
g6
NtRp387
(dp388
g9
S'A'
sg10
g385
sg11
Nsg12
S'objective'
p389
sg14
I22
sg15
g386
sg16
S'246271122696450048'
p390
sg18
I6
sbs(S'382459056'
p391
S'264169727134429186B'
tp392
g4
(g5
g6
NtRp393
(dp394
g9
S'A'
sg10
g391
sg11
Nsg12
S'negative'
p395
sg14
I12
sg15
g392
sg16
S'264169727134429186'
p396
sg18
I10
sbs(S'27673803'
p397
S'118362498155028480G'
tp398
g4
(g5
g6
NtRp399
(dp400
g9
S'A'
sg10
g397
sg11
Nsg12
S'objective'
p401
sg14
I21
sg15
g398
sg16
S'118362498155028480'
p402
sg18
I14
sbs(S'762638042'
p403
S'264090452284821504B'
tp404
g4
(g5
g6
NtRp405
(dp406
g9
S'A'
sg10
g403
sg11
Nsg12
S'negative'
p407
sg14
I4
sg15
g404
sg16
S'264090452284821504'
p408
sg18
I1
sbs(S'732673236'
p409
S'263461390172442624B'
tp410
g4
(g5
g6
NtRp411
(dp412
g9
S'A'
sg10
g409
sg11
Nsg12
S'positive'
p413
sg14
I14
sg15
g410
sg16
S'263461390172442624'
p414
sg18
I13
sbs(S'37188908'
p415
S'227430095269289984A'
tp416
g4
(g5
g6
NtRp417
(dp418
g9
S'A'
sg10
g415
sg11
Nsg12
S'objective'
p419
sg14
I10
sg15
g416
sg16
S'227430095269289984'
p420
sg18
I0
sbs(S'40256296'
p421
S'209857634889764864A'
tp422
g4
(g5
g6
NtRp423
(dp424
g9
S'A'
sg10
g421
sg11
Nsg12
S'objective'
p425
sg14
I28
sg15
g422
sg16
S'209857634889764864'
p426
sg18
I0
sbs(S'220447654'
p427
S'103219394854912000A'
tp428
g4
(g5
g6
NtRp429
(dp430
g9
S'A'
sg10
g427
sg11
Nsg12
S'objective'
p431
sg14
I8
sg15
g428
sg16
S'103219394854912000'
p432
sg18
I0
sbs(S'281258276'
p433
S'100348025205030913A'
tp434
g4
(g5
g6
NtRp435
(dp436
g9
S'A'
sg10
g433
sg11
Nsg12
S'objective'
p437
sg14
I3
sg15
g434
sg16
S'100348025205030913'
p438
sg18
I0
sbs(S'75459354'
p439
S'264086181954859008A'
tp440
g4
(g5
g6
NtRp441
(dp442
g9
S'A'
sg10
g439
sg11
Nsg12
S'objective'
p443
sg14
I0
sg15
g440
sg16
S'264086181954859008'
p444
sg18
I0
sbs(S'394763270'
p445
S'263984722617712640E'
tp446
g4
(g5
g6
NtRp447
(dp448
g9
S'A'
sg10
g445
sg11
Nsg12
S'objective'
p449
sg14
I19
sg15
g446
sg16
S'263984722617712640'
p450
sg18
I19
sbs(S'203740421'
p451
S'106585520066404352C'
tp452
g4
(g5
g6
NtRp453
(dp454
g9
S'A'
sg10
g451
sg11
Nsg12
S'objective'
p455
sg14
I23
sg15
g452
sg16
S'106585520066404352'
p456
sg18
I15
sbs(S'242341937'
p457
S'248370653286240256H'
tp458
g4
(g5
g6
NtRp459
(dp460
g9
S'A'
sg10
g457
sg11
Nsg12
S'objective'
p461
sg14
I26
sg15
g458
sg16
S'248370653286240256'
p462
sg18
I17
sbs(S'612415338'
p463
S'263489626793185280C'
tp464
g4
(g5
g6
NtRp465
(dp466
g9
S'A'
sg10
g463
sg11
Nsg12
S'objective'
p467
sg14
I12
sg15
g464
sg16
S'263489626793185280'
p468
sg18
I11
sbs(S'577546457'
p469
S'264157367481012224A'
tp470
g4
(g5
g6
NtRp471
(dp472
g9
S'A'
sg10
g469
sg11
Nsg12
S'objective'
p473
sg14
I8
sg15
g470
sg16
S'264157367481012224'
p474
sg18
I0
sbs(S'63532465'
p475
S'100665193335500800D'
tp476
g4
(g5
g6
NtRp477
(dp478
g9
S'A'
sg10
g475
sg11
Nsg12
S'positive'
p479
sg14
I14
sg15
g476
sg16
S'100665193335500800'
p480
sg18
I14
sbs(S'439507318'
p481
S'232905603322884096C'
tp482
g4
(g5
g6
NtRp483
(dp484
g9
S'A'
sg10
g481
sg11
Nsg12
S'objective'
p485
sg14
I22
sg15
g482
sg16
S'232905603322884096'
p486
sg18
I5
sbs(S'209682819'
p487
S'263640792415997953C'
tp488
g4
(g5
g6
NtRp489
(dp490
g9
S'A'
sg10
g487
sg11
Nsg12
S'objective'
p491
sg14
I27
sg15
g488
sg16
S'263640792415997953'
p492
sg18
I22
sbs(S'153307673'
p493
S'103429907421466624E'
tp494
g4
(g5
g6
NtRp495
(dp496
g9
S'A'
sg10
g493
sg11
Nsg12
S'objective'
p497
sg14
I28
sg15
g494
sg16
S'103429907421466624'
p498
sg18
I20
sbs(S'212483510'
p499
S'111538042954723328E'
tp500
g4
(g5
g6
NtRp501
(dp502
g9
S'A'
sg10
g499
sg11
Nsg12
S'objective'
p503
sg14
I18
sg15
g500
sg16
S'111538042954723328'
p504
sg18
I16
sbs(S'31037343'
p505
S'238453939270471680D'
tp506
g4
(g5
g6
NtRp507
(dp508
g9
S'A'
sg10
g505
sg11
Nsg12
S'positive'
p509
sg14
I10
sg15
g506
sg16
S'238453939270471680'
p510
sg18
I9
sbs(S'27982261'
p511
S'103157260112510976C'
tp512
g4
(g5
g6
NtRp513
(dp514
g9
S'A'
sg10
g511
sg11
Nsg12
S'objective'
p515
sg14
I22
sg15
g512
sg16
S'103157260112510976'
p516
sg18
I11
sbs(S'165404022'
p517
S'118166757763584000D'
tp518
g4
(g5
g6
NtRp519
(dp520
g9
S'A'
sg10
g517
sg11
Nsg12
S'positive'
p521
sg14
I22
sg15
g518
sg16
S'118166757763584000'
p522
sg18
I21
sbs(S'583884742'
p523
S'264057505871695872B'
tp524
g4
(g5
g6
NtRp525
(dp526
g9
S'A'
sg10
g523
sg11
Nsg12
S'positive'
p527
sg14
I5
sg15
g524
sg16
S'264057505871695872'
p528
sg18
I5
sbs(S'69896660'
p529
S'101451079404892160B'
tp530
g4
(g5
g6
NtRp531
(dp532
g9
S'A'
sg10
g529
sg11
Nsg12
S'positive'
p533
sg14
I8
sg15
g530
sg16
S'101451079404892160'
p534
sg18
I6
sbs(S'167482641'
p535
S'262921934981971970D'
tp536
g4
(g5
g6
NtRp537
(dp538
g9
S'A'
sg10
g535
sg11
Nsg12
S'negative'
p539
sg14
I15
sg15
g536
sg16
S'262921934981971970'
p540
sg18
I15
sbs(S'400051029'
p541
S'259655323122556929C'
tp542
g4
(g5
g6
NtRp543
(dp544
g9
S'A'
sg10
g541
sg11
Nsg12
S'objective'
p545
sg14
I22
sg15
g542
sg16
S'259655323122556929'
p546
sg18
I18
sbs(S'171598747'
p547
S'261698879978872832A'
tp548
g4
(g5
g6
NtRp549
(dp550
g9
S'A'
sg10
g547
sg11
Nsg12
S'objective'
p551
sg14
I7
sg15
g548
sg16
S'261698879978872832'
p552
sg18
I0
sbs(S'19961694'
p553
S'259884564359548928A'
tp554
g4
(g5
g6
NtRp555
(dp556
g9
S'A'
sg10
g553
sg11
Nsg12
S'objective'
p557
sg14
I4
sg15
g554
sg16
S'259884564359548928'
p558
sg18
I0
sbs(S'41785156'
p559
S'100320206026579968B'
tp560
g4
(g5
g6
NtRp561
(dp562
g9
S'A'
sg10
g559
sg11
Nsg12
S'positive'
p563
sg14
I18
sg15
g560
sg16
S'100320206026579968'
p564
sg18
I17
sbs(S'67065526'
p565
S'264106310553985024B'
tp566
g4
(g5
g6
NtRp567
(dp568
g9
S'A'
sg10
g565
sg11
Nsg12
S'positive'
p569
sg14
I1
sg15
g566
sg16
S'264106310553985024'
p570
sg18
I1
sbs(S'38110141'
p571
S'100333959212310528B'
tp572
g4
(g5
g6
NtRp573
(dp574
g9
S'A'
sg10
g571
sg11
Nsg12
S'positive'
p575
sg14
I22
sg15
g572
sg16
S'100333959212310528'
p576
sg18
I20
sbs(S'67065526'
p577
S'264106310553985024A'
tp578
g4
(g5
g6
NtRp579
(dp580
g9
S'A'
sg10
g577
sg11
Nsg12
S'objective'
p581
sg14
I0
sg15
g578
sg16
S'264106310553985024'
p582
sg18
I0
sbs(S'103998818'
p583
S'227832288061317121B'
tp584
g4
(g5
g6
NtRp585
(dp586
g9
S'A'
sg10
g583
sg11
Nsg12
S'positive'
p587
sg14
I10
sg15
g584
sg16
S'227832288061317121'
p588
sg18
I9
sbs(S'127448097'
p589
S'262806394321903616A'
tp590
g4
(g5
g6
NtRp591
(dp592
g9
S'A'
sg10
g589
sg11
Nsg12
S'objective'
p593
sg14
I21
sg15
g590
sg16
S'262806394321903616'
p594
sg18
I0
sbs(S'198814114'
p595
S'257824517202771969D'
tp596
g4
(g5
g6
NtRp597
(dp598
g9
S'A'
sg10
g595
sg11
Nsg12
S'positive'
p599
sg14
I12
sg15
g596
sg16
S'257824517202771969'
p600
sg18
I12
sbs(S'429269903'
p601
S'264101009100513280B'
tp602
g4
(g5
g6
NtRp603
(dp604
g9
S'A'
sg10
g601
sg11
Nsg12
S'negative'
p605
sg14
I9
sg15
g602
sg16
S'264101009100513280'
p606
sg18
I9
sbs(S'183027479'
p607
S'263973724288602112C'
tp608
g4
(g5
g6
NtRp609
(dp610
g9
S'A'
sg10
g607
sg11
Nsg12
S'objective'
p611
sg14
I10
sg15
g608
sg16
S'263973724288602112'
p612
sg18
I10
sbs(S'753528871'
p613
S'264089658097549312B'
tp614
g4
(g5
g6
NtRp615
(dp616
g9
S'A'
sg10
g613
sg11
Nsg12
S'positive'
p617
sg14
I15
sg15
g614
sg16
S'264089658097549312'
p618
sg18
I15
sbs(S'762638042'
p619
S'264090452284821504E'
tp620
g4
(g5
g6
NtRp621
(dp622
g9
S'A'
sg10
g619
sg11
Nsg12
S'objective'
p623
sg14
I19
sg15
g620
sg16
S'264090452284821504'
p624
sg18
I16
sbs(S'203740421'
p625
S'106585520066404352D'
tp626
g4
(g5
g6
NtRp627
(dp628
g9
S'A'
sg10
g625
sg11
Nsg12
S'negative'
p629
sg14
I24
sg15
g626
sg16
S'106585520066404352'
p630
sg18
I24
sbs(S'170417924'
p631
S'108261821235990528C'
tp632
g4
(g5
g6
NtRp633
(dp634
g9
S'A'
sg10
g631
sg11
Nsg12
S'objective'
p635
sg14
I23
sg15
g632
sg16
S'108261821235990528'
p636
sg18
I4
sbs(S'118384493'
p637
S'104515631365365761B'
tp638
g4
(g5
g6
NtRp639
(dp640
g9
S'A'
sg10
g637
sg11
Nsg12
S'objective'
p641
sg14
I8
sg15
g638
sg16
S'104515631365365761'
p642
sg18
I2
sbs(S'349109660'
p643
S'101454064570732545E'
tp644
g4
(g5
g6
NtRp645
(dp646
g9
S'A'
sg10
g643
sg11
Nsg12
S'objective'
p647
sg14
I15
sg15
g644
sg16
S'101454064570732545'
p648
sg18
I11
sbs(S'181992438'
p649
S'244485221456703488C'
tp650
g4
(g5
g6
NtRp651
(dp652
g9
S'A'
sg10
g649
sg11
Nsg12
S'objective'
p653
sg14
I16
sg15
g650
sg16
S'244485221456703488'
p654
sg18
I6
sbs(S'3015401'
p655
S'100397126370078721D'
tp656
g4
(g5
g6
NtRp657
(dp658
g9
S'A'
sg10
g655
sg11
Nsg12
S'positive'
p659
sg14
I11
sg15
g656
sg16
S'100397126370078721'
p660
sg18
I10
sbs(S'98627870'
p661
S'103217677996277760E'
tp662
g4
(g5
g6
NtRp663
(dp664
g9
S'A'
sg10
g661
sg11
Nsg12
S'objective'
p665
sg14
I23
sg15
g662
sg16
S'103217677996277760'
p666
sg18
I18
sbs(S'98940331'
p667
S'263707008383987712A'
tp668
g4
(g5
g6
NtRp669
(dp670
g9
S'A'
sg10
g667
sg11
Nsg12
S'objective'
p671
sg14
I10
sg15
g668
sg16
S'263707008383987712'
p672
sg18
I0
sbs(S'279268715'
p673
S'260187702429876226C'
tp674
g4
(g5
g6
NtRp675
(dp676
g9
S'A'
sg10
g673
sg11
Nsg12
S'objective'
p677
sg14
I6
sg15
g674
sg16
S'260187702429876226'
p678
sg18
I4
sbs(S'67036119'
p679
S'104682745376161792D'
tp680
g4
(g5
g6
NtRp681
(dp682
g9
S'A'
sg10
g679
sg11
Nsg12
S'objective'
p683
sg14
I12
sg15
g680
sg16
S'104682745376161792'
p684
sg18
I4
sbs(S'21925335'
p685
S'220220804338679809E'
tp686
g4
(g5
g6
NtRp687
(dp688
g9
S'A'
sg10
g685
sg11
Nsg12
S'objective'
p689
sg14
I28
sg15
g686
sg16
S'220220804338679809'
p690
sg18
I27
sbs(S'227179643'
p691
S'118167201797775360C'
tp692
g4
(g5
g6
NtRp693
(dp694
g9
S'A'
sg10
g691
sg11
Nsg12
S'objective'
p695
sg14
I19
sg15
g692
sg16
S'118167201797775360'
p696
sg18
I10
sbs(S'321122648'
p697
S'187742971859451904A'
tp698
g4
(g5
g6
NtRp699
(dp700
g9
S'A'
sg10
g697
sg11
Nsg12
S'objective'
p701
sg14
I12
sg15
g698
sg16
S'187742971859451904'
p702
sg18
I0
sbs(S'337700729'
p703
S'248401241196085248B'
tp704
g4
(g5
g6
NtRp705
(dp706
g9
S'A'
sg10
g703
sg11
Nsg12
S'positive'
p707
sg14
I5
sg15
g704
sg16
S'248401241196085248'
p708
sg18
I3
sbs(S'31037343'
p709
S'238453939270471680C'
tp710
g4
(g5
g6
NtRp711
(dp712
g9
S'A'
sg10
g709
sg11
Nsg12
S'objective'
p713
sg14
I8
sg15
g710
sg16
S'238453939270471680'
p714
sg18
I8
sbs(S'191945151'
p715
S'263786661517860865A'
tp716
g4
(g5
g6
NtRp717
(dp718
g9
S'A'
sg10
g715
sg11
Nsg12
S'objective'
p719
sg14
I4
sg15
g716
sg16
S'263786661517860865'
p720
sg18
I0
sbs(S'439507318'
p721
S'232905603322884096A'
tp722
g4
(g5
g6
NtRp723
(dp724
g9
S'A'
sg10
g721
sg11
Nsg12
S'objective'
p725
sg14
I2
sg15
g722
sg16
S'232905603322884096'
p726
sg18
I0
sbs(S'757089673'
p727
S'241711277532119040A'
tp728
g4
(g5
g6
NtRp729
(dp730
g9
S'A'
sg10
g727
sg11
Nsg12
S'positive'
p731
sg14
I0
sg15
g728
sg16
S'241711277532119040'
p732
sg18
I0
sbs(S'259074027'
p733
S'263258642151780352A'
tp734
g4
(g5
g6
NtRp735
(dp736
g9
S'A'
sg10
g733
sg11
Nsg12
S'objective'
p737
sg14
I8
sg15
g734
sg16
S'263258642151780352'
p738
sg18
I0
sbs(S'233066756'
p739
S'104349784642560000E'
tp740
g4
(g5
g6
NtRp741
(dp742
g9
S'A'
sg10
g739
sg11
Nsg12
S'objective'
p743
sg14
I18
sg15
g740
sg16
S'104349784642560000'
p744
sg18
I14
sbs(S'62823680'
p745
S'261572875306291200C'
tp746
g4
(g5
g6
NtRp747
(dp748
g9
S'A'
sg10
g745
sg11
Nsg12
S'positive'
p749
sg14
I12
sg15
g746
sg16
S'261572875306291200'
p750
sg18
I10
sbs(S'349857864'
p751
S'108170719875182592A'
tp752
g4
(g5
g6
NtRp753
(dp754
g9
S'A'
sg10
g751
sg11
Nsg12
S'objective'
p755
sg14
I20
sg15
g752
sg16
S'108170719875182592'
p756
sg18
I0
sbs(S'531310923'
p757
S'256746338073587712C'
tp758
g4
(g5
g6
NtRp759
(dp760
g9
S'A'
sg10
g757
sg11
Nsg12
S'objective'
p761
sg14
I10
sg15
g758
sg16
S'256746338073587712'
p762
sg18
I2
sbs(S'293142083'
p763
S'102991944950628352A'
tp764
g4
(g5
g6
NtRp765
(dp766
g9
S'A'
sg10
g763
sg11
Nsg12
S'objective'
p767
sg14
I4
sg15
g764
sg16
S'102991944950628352'
p768
sg18
I0
sbs(S'69948216'
p769
S'228698918727340032D'
tp770
g4
(g5
g6
NtRp771
(dp772
g9
S'A'
sg10
g769
sg11
Nsg12
S'positive'
p773
sg14
I3
sg15
g770
sg16
S'228698918727340032'
p774
sg18
I3
sbs(S'356494473'
p775
S'113455325029482496C'
tp776
g4
(g5
g6
NtRp777
(dp778
g9
S'A'
sg10
g775
sg11
Nsg12
S'objective'
p779
sg14
I23
sg15
g776
sg16
S'113455325029482496'
p780
sg18
I6
sbs(S'301301949'
p781
S'234433845917802496C'
tp782
g4
(g5
g6
NtRp783
(dp784
g9
S'A'
sg10
g781
sg11
Nsg12
S'objective'
p785
sg14
I19
sg15
g782
sg16
S'234433845917802496'
p786
sg18
I4
sbs(S'186349415'
p787
S'100228151422099456E'
tp788
g4
(g5
g6
NtRp789
(dp790
g9
S'A'
sg10
g787
sg11
Nsg12
S'objective'
p791
sg14
I16
sg15
g788
sg16
S'100228151422099456'
p792
sg18
I13
sbs(S'290120812'
p793
S'175147659059929089F'
tp794
g4
(g5
g6
NtRp795
(dp796
g9
S'A'
sg10
g793
sg11
Nsg12
S'positive'
p797
sg14
I23
sg15
g794
sg16
S'175147659059929089'
p798
sg18
I23
sbs(S'147606409'
p799
S'111483585390854144D'
tp800
g4
(g5
g6
NtRp801
(dp802
g9
S'A'
sg10
g799
sg11
Nsg12
S'negative'
p803
sg14
I17
sg15
g800
sg16
S'111483585390854144'
p804
sg18
I15
sbs(S'38612928'
p805
S'119494324760231937C'
tp806
g4
(g5
g6
NtRp807
(dp808
g9
S'A'
sg10
g805
sg11
Nsg12
S'objective'
p809
sg14
I24
sg15
g806
sg16
S'119494324760231937'
p810
sg18
I8
sbs(S'404654419'
p811
S'264106058103025665C'
tp812
g4
(g5
g6
NtRp813
(dp814
g9
S'A'
sg10
g811
sg11
Nsg12
S'objective'
p815
sg14
I24
sg15
g812
sg16
S'264106058103025665'
p816
sg18
I24
sbs(S'574021965'
p817
S'236751593054277632A'
tp818
g4
(g5
g6
NtRp819
(dp820
g9
S'A'
sg10
g817
sg11
Nsg12
S'objective'
p821
sg14
I19
sg15
g818
sg16
S'236751593054277632'
p822
sg18
I0
sbs(S'152556346'
p823
S'260051608686170112A'
tp824
g4
(g5
g6
NtRp825
(dp826
g9
S'A'
sg10
g823
sg11
Nsg12
S'objective'
p827
sg14
I0
sg15
g824
sg16
S'260051608686170112'
p828
sg18
I0
sbs(S'11282622'
p829
S'195015914754818048C'
tp830
g4
(g5
g6
NtRp831
(dp832
g9
S'A'
sg10
g829
sg11
Nsg12
S'objective'
p833
sg14
I23
sg15
g830
sg16
S'195015914754818048'
p834
sg18
I4
sbs(S'753528871'
p835
S'264089658097549312C'
tp836
g4
(g5
g6
NtRp837
(dp838
g9
S'A'
sg10
g835
sg11
Nsg12
S'objective'
p839
sg14
I21
sg15
g836
sg16
S'264089658097549312'
p840
sg18
I16
sbs(S'147606409'
p841
S'111483585390854144A'
tp842
g4
(g5
g6
NtRp843
(dp844
g9
S'A'
sg10
g841
sg11
Nsg12
S'objective'
p845
sg14
I2
sg15
g842
sg16
S'111483585390854144'
p846
sg18
I0
sbs(S'239420854'
p847
S'103504889249923072C'
tp848
g4
(g5
g6
NtRp849
(dp850
g9
S'A'
sg10
g847
sg11
Nsg12
S'objective'
p851
sg14
I16
sg15
g848
sg16
S'103504889249923072'
p852
sg18
I14
sbs(S'353946567'
p853
S'108201763772960769F'
tp854
g4
(g5
g6
NtRp855
(dp856
g9
S'A'
sg10
g853
sg11
Nsg12
S'positive'
p857
sg14
I27
sg15
g854
sg16
S'108201763772960769'
p858
sg18
I25
sbs(S'18684224'
p859
S'103250430980665345C'
tp860
g4
(g5
g6
NtRp861
(dp862
g9
S'A'
sg10
g859
sg11
Nsg12
S'objective'
p863
sg14
I14
sg15
g860
sg16
S'103250430980665345'
p864
sg18
I3
sbs(S'63886917'
p865
S'192417988778016768A'
tp866
g4
(g5
g6
NtRp867
(dp868
g9
S'A'
sg10
g865
sg11
Nsg12
S'objective'
p869
sg14
I19
sg15
g866
sg16
S'192417988778016768'
p870
sg18
I0
sbs(S'349109660'
p871
S'101454064570732545B'
tp872
g4
(g5
g6
NtRp873
(dp874
g9
S'A'
sg10
g871
sg11
Nsg12
S'negative'
p875
sg14
I3
sg15
g872
sg16
S'101454064570732545'
p876
sg18
I2
sbs(S'185428677'
p877
S'108232564933804032A'
tp878
g4
(g5
g6
NtRp879
(dp880
g9
S'A'
sg10
g877
sg11
Nsg12
S'objective'
p881
sg14
I7
sg15
g878
sg16
S'108232564933804032'
p882
sg18
I0
sbs(S'44067958'
p883
S'107945322713587712A'
tp884
g4
(g5
g6
NtRp885
(dp886
g9
S'A'
sg10
g883
sg11
Nsg12
S'objective'
p887
sg14
I18
sg15
g884
sg16
S'107945322713587712'
p888
sg18
I0
sbs(S'16267008'
p889
S'103219393776992256A'
tp890
g4
(g5
g6
NtRp891
(dp892
g9
S'A'
sg10
g889
sg11
Nsg12
S'objective'
p893
sg14
I2
sg15
g890
sg16
S'103219393776992256'
p894
sg18
I0
sbs(S'318670582'
p895
S'102855541625335808C'
tp896
g4
(g5
g6
NtRp897
(dp898
g9
S'A'
sg10
g895
sg11
Nsg12
S'objective'
p899
sg14
I23
sg15
g896
sg16
S'102855541625335808'
p900
sg18
I10
sbs(S'368265063'
p901
S'254579556311265280B'
tp902
g4
(g5
g6
NtRp903
(dp904
g9
S'A'
sg10
g901
sg11
Nsg12
S'neutral'
p905
sg14
I10
sg15
g902
sg16
S'254579556311265280'
p906
sg18
I10
sbs(S'395924563'
p907
S'236560243843276801B'
tp908
g4
(g5
g6
NtRp909
(dp910
g9
S'A'
sg10
g907
sg11
Nsg12
S'positive'
p911
sg14
I4
sg15
g908
sg16
S'236560243843276801'
p912
sg18
I2
sbs(S'72779300'
p913
S'262792742982254592C'
tp914
g4
(g5
g6
NtRp915
(dp916
g9
S'A'
sg10
g913
sg11
Nsg12
S'objective'
p917
sg14
I13
sg15
g914
sg16
S'262792742982254592'
p918
sg18
I3
sbs(S'739945399'
p919
S'262082580361379840B'
tp920
g4
(g5
g6
NtRp921
(dp922
g9
S'A'
sg10
g919
sg11
Nsg12
S'positive'
p923
sg14
I3
sg15
g920
sg16
S'262082580361379840'
p924
sg18
I2
sbs(S'245147147'
p925
S'264050462670614528B'
tp926
g4
(g5
g6
NtRp927
(dp928
g9
S'A'
sg10
g925
sg11
Nsg12
S'objective'
p929
sg14
I4
sg15
g926
sg16
S'264050462670614528'
p930
sg18
I4
sbs(S'31037343'
p931
S'238453939270471680J'
tp932
g4
(g5
g6
NtRp933
(dp934
g9
S'A'
sg10
g931
sg11
Nsg12
S'positive'
p935
sg14
I26
sg15
g932
sg16
S'238453939270471680'
p936
sg18
I25
sbs(S'530919604'
p937
S'229644255537266688C'
tp938
g4
(g5
g6
NtRp939
(dp940
g9
S'A'
sg10
g937
sg11
Nsg12
S'objective'
p941
sg14
I23
sg15
g938
sg16
S'229644255537266688'
p942
sg18
I19
sbs(S'550957683'
p943
S'240515102988697601A'
tp944
g4
(g5
g6
NtRp945
(dp946
g9
S'A'
sg10
g943
sg11
Nsg12
S'objective'
p947
sg14
I8
sg15
g944
sg16
S'240515102988697601'
p948
sg18
I0
sbs(S'247855533'
p949
S'188863888765370368A'
tp950
g4
(g5
g6
NtRp951
(dp952
g9
S'A'
sg10
g949
sg11
Nsg12
S'objective'
p953
sg14
I5
sg15
g950
sg16
S'188863888765370368'
p954
sg18
I0
sbs(S'69508768'
p955
S'101814905275039744A'
tp956
g4
(g5
g6
NtRp957
(dp958
g9
S'A'
sg10
g955
sg11
Nsg12
S'objective'
p959
sg14
I19
sg15
g956
sg16
S'101814905275039744'
p960
sg18
I0
sbs(S'59507141'
p961
S'254381435228680193A'
tp962
g4
(g5
g6
NtRp963
(dp964
g9
S'A'
sg10
g961
sg11
Nsg12
S'objective'
p965
sg14
I8
sg15
g962
sg16
S'254381435228680193'
p966
sg18
I0
sbs(S'20756067'
p967
S'259374136181288960B'
tp968
g4
(g5
g6
NtRp969
(dp970
g9
S'A'
sg10
g967
sg11
Nsg12
S'positive'
p971
sg14
I11
sg15
g968
sg16
S'259374136181288960'
p972
sg18
I10
sbs(S'233066756'
p973
S'104349784642560000B'
tp974
g4
(g5
g6
NtRp975
(dp976
g9
S'A'
sg10
g973
sg11
Nsg12
S'positive'
p977
sg14
I2
sg15
g974
sg16
S'104349784642560000'
p978
sg18
I2
sbs(S'147259796'
p979
S'262059855089651712A'
tp980
g4
(g5
g6
NtRp981
(dp982
g9
S'A'
sg10
g979
sg11
Nsg12
S'objective'
p983
sg14
I17
sg15
g980
sg16
S'262059855089651712'
p984
sg18
I0
sbs(S'154969629'
p985
S'100381935729262592B'
tp986
g4
(g5
g6
NtRp987
(dp988
g9
S'A'
sg10
g985
sg11
Nsg12
S'negative'
p989
sg14
I1
sg15
g986
sg16
S'100381935729262592'
p990
sg18
I1
sbs(S'530919604'
p991
S'229644255537266688D'
tp992
g4
(g5
g6
NtRp993
(dp994
g9
S'A'
sg10
g991
sg11
Nsg12
S'positive'
p995
sg14
I24
sg15
g992
sg16
S'229644255537266688'
p996
sg18
I24
sbs(S'107628564'
p997
S'264068419480088576A'
tp998
g4
(g5
g6
NtRp999
(dp1000
g9
S'A'
sg10
g997
sg11
Nsg12
S'objective'
p1001
sg14
I17
sg15
g998
sg16
S'264068419480088576'
p1002
sg18
I0
sbs(S'116628196'
p1003
S'203977468904878081A'
tp1004
g4
(g5
g6
NtRp1005
(dp1006
g9
S'A'
sg10
g1003
sg11
Nsg12
S'objective'
p1007
sg14
I2
sg15
g1004
sg16
S'203977468904878081'
p1008
sg18
I0
sbs(S'38901415'
p1009
S'100757770877415425A'
tp1010
g4
(g5
g6
NtRp1011
(dp1012
g9
S'A'
sg10
g1009
sg11
Nsg12
S'objective'
p1013
sg14
I24
sg15
g1010
sg16
S'100757770877415425'
p1014
sg18
I0
sbs(S'76587091'
p1015
S'264251347195551744C'
tp1016
g4
(g5
g6
NtRp1017
(dp1018
g9
S'A'
sg10
g1015
sg11
Nsg12
S'positive'
p1019
sg14
I15
sg15
g1016
sg16
S'264251347195551744'
p1020
sg18
I11
sbs(S'866709174'
p1021
S'262501520535339008G'
tp1022
g4
(g5
g6
NtRp1023
(dp1024
g9
S'A'
sg10
g1021
sg11
Nsg12
S'objective'
p1025
sg14
I21
sg15
g1022
sg16
S'262501520535339008'
p1026
sg18
I15
sbs(S'38621292'
p1027
S'233410057478479874C'
tp1028
g4
(g5
g6
NtRp1029
(dp1030
g9
S'A'
sg10
g1027
sg11
Nsg12
S'objective'
p1031
sg14
I15
sg15
g1028
sg16
S'233410057478479874'
p1032
sg18
I3
sbs(S'321496438'
p1033
S'259358550869024768A'
tp1034
g4
(g5
g6
NtRp1035
(dp1036
g9
S'A'
sg10
g1033
sg11
Nsg12
S'objective'
p1037
sg14
I2
sg15
g1034
sg16
S'259358550869024768'
p1038
sg18
I0
sbs(S'178634171'
p1039
S'222350785583923200A'
tp1040
g4
(g5
g6
NtRp1041
(dp1042
g9
S'A'
sg10
g1039
sg11
Nsg12
S'objective'
p1043
sg14
I5
sg15
g1040
sg16
S'222350785583923200'
p1044
sg18
I0
sbs(S'11282622'
p1045
S'195015914754818048D'
tp1046
g4
(g5
g6
NtRp1047
(dp1048
g9
S'A'
sg10
g1045
sg11
Nsg12
S'positive'
p1049
sg14
I25
sg15
g1046
sg16
S'195015914754818048'
p1050
sg18
I24
sbs(S'217611229'
p1051
S'102885406122590208A'
tp1052
g4
(g5
g6
NtRp1053
(dp1054
g9
S'A'
sg10
g1051
sg11
Nsg12
S'objective'
p1055
sg14
I4
sg15
g1052
sg16
S'102885406122590208'
p1056
sg18
I0
sbs(S'85841896'
p1057
S'248132983159132160B'
tp1058
g4
(g5
g6
NtRp1059
(dp1060
g9
S'A'
sg10
g1057
sg11
Nsg12
S'positive'
p1061
sg14
I1
sg15
g1058
sg16
S'248132983159132160'
p1062
sg18
I1
sbs(S'251477467'
p1063
S'104380375945576448B'
tp1064
g4
(g5
g6
NtRp1065
(dp1066
g9
S'A'
sg10
g1063
sg11
Nsg12
S'neutral'
p1067
sg14
I2
sg15
g1064
sg16
S'104380375945576448'
p1068
sg18
I2
sbs(S'293142083'
p1069
S'102991944950628352C'
tp1070
g4
(g5
g6
NtRp1071
(dp1072
g9
S'A'
sg10
g1069
sg11
Nsg12
S'objective'
p1073
sg14
I18
sg15
g1070
sg16
S'102991944950628352'
p1074
sg18
I7
sbs(S'206061060'
p1075
S'108247073098448896A'
tp1076
g4
(g5
g6
NtRp1077
(dp1078
g9
S'A'
sg10
g1075
sg11
Nsg12
S'objective'
p1079
sg14
I21
sg15
g1076
sg16
S'108247073098448896'
p1080
sg18
I0
sbs(S'158833342'
p1081
S'108292425813995520B'
tp1082
g4
(g5
g6
NtRp1083
(dp1084
g9
S'A'
sg10
g1081
sg11
Nsg12
S'negative'
p1085
sg14
I13
sg15
g1082
sg16
S'108292425813995520'
p1086
sg18
I13
sbs(S'27781218'
p1087
S'264185830581604352C'
tp1088
g4
(g5
g6
NtRp1089
(dp1090
g9
S'A'
sg10
g1087
sg11
Nsg12
S'objective'
p1091
sg14
I29
sg15
g1088
sg16
S'264185830581604352'
p1092
sg18
I5
sbs(S'249320924'
p1093
S'100046752241041409B'
tp1094
g4
(g5
g6
NtRp1095
(dp1096
g9
S'A'
sg10
g1093
sg11
Nsg12
S'positive'
p1097
sg14
I3
sg15
g1094
sg16
S'100046752241041409'
p1098
sg18
I3
sbs(S'347915191'
p1099
S'100274052534501376E'
tp1100
g4
(g5
g6
NtRp1101
(dp1102
g9
S'A'
sg10
g1099
sg11
Nsg12
S'objective'
p1103
sg14
I19
sg15
g1100
sg16
S'100274052534501376'
p1104
sg18
I4
sbs(S'395924563'
p1105
S'236560243843276801E'
tp1106
g4
(g5
g6
NtRp1107
(dp1108
g9
S'A'
sg10
g1105
sg11
Nsg12
S'objective'
p1109
sg14
I18
sg15
g1106
sg16
S'236560243843276801'
p1110
sg18
I9
sbs(S'3015401'
p1111
S'100397126370078721B'
tp1112
g4
(g5
g6
NtRp1113
(dp1114
g9
S'A'
sg10
g1111
sg11
Nsg12
S'positive'
p1115
sg14
I7
sg15
g1112
sg16
S'100397126370078721'
p1116
sg18
I7
sbs(S'15421625'
p1117
S'264144760229474304B'
tp1118
g4
(g5
g6
NtRp1119
(dp1120
g9
S'A'
sg10
g1117
sg11
Nsg12
S'objective'
p1121
sg14
I3
sg15
g1118
sg16
S'264144760229474304'
p1122
sg18
I1
sbs(S'214307858'
p1123
S'101496696877486080C'
tp1124
g4
(g5
g6
NtRp1125
(dp1126
g9
S'A'
sg10
g1123
sg11
Nsg12
S'objective'
p1127
sg14
I22
sg15
g1124
sg16
S'101496696877486080'
p1128
sg18
I2
sbs(S'228498230'
p1129
S'108261715120099328E'
tp1130
g4
(g5
g6
NtRp1131
(dp1132
g9
S'A'
sg10
g1129
sg11
Nsg12
S'objective'
p1133
sg14
I22
sg15
g1130
sg16
S'108261715120099328'
p1134
sg18
I18
sbs(S'114905640'
p1135
S'104743886278238209E'
tp1136
g4
(g5
g6
NtRp1137
(dp1138
g9
S'A'
sg10
g1135
sg11
Nsg12
S'objective'
p1139
sg14
I10
sg15
g1136
sg16
S'104743886278238209'
p1140
sg18
I6
sbs(S'119519641'
p1141
S'263962593155219456B'
tp1142
g4
(g5
g6
NtRp1143
(dp1144
g9
S'A'
sg10
g1141
sg11
Nsg12
S'positive'
p1145
sg14
I7
sg15
g1142
sg16
S'263962593155219456'
p1146
sg18
I7
sbs(S'346400200'
p1147
S'264204445036974081F'
tp1148
g4
(g5
g6
NtRp1149
(dp1150
g9
S'A'
sg10
g1147
sg11
Nsg12
S'positive'
p1151
sg14
I23
sg15
g1148
sg16
S'264204445036974081'
p1152
sg18
I23
sbs(S'418054364'
p1153
S'264189461473157120C'
tp1154
g4
(g5
g6
NtRp1155
(dp1156
g9
S'A'
sg10
g1153
sg11
Nsg12
S'objective'
p1157
sg14
I21
sg15
g1154
sg16
S'264189461473157120'
p1158
sg18
I3
sbs(S'407998827'
p1159
S'264165994702979072C'
tp1160
g4
(g5
g6
NtRp1161
(dp1162
g9
S'A'
sg10
g1159
sg11
Nsg12
S'objective'
p1163
sg14
I22
sg15
g1160
sg16
S'264165994702979072'
p1164
sg18
I22
sbs(S'242341937'
p1165
S'248370653286240256G'
tp1166
g4
(g5
g6
NtRp1167
(dp1168
g9
S'A'
sg10
g1165
sg11
Nsg12
S'negative'
p1169
sg14
I16
sg15
g1166
sg16
S'248370653286240256'
p1170
sg18
I15
sbs(S'612415338'
p1171
S'263489626793185280F'
tp1172
g4
(g5
g6
NtRp1173
(dp1174
g9
S'A'
sg10
g1171
sg11
Nsg12
S'positive'
p1175
sg14
I24
sg15
g1172
sg16
S'263489626793185280'
p1176
sg18
I23
sbs(S'25152395'
p1177
S'180732852973993984E'
tp1178
g4
(g5
g6
NtRp1179
(dp1180
g9
S'A'
sg10
g1177
sg11
Nsg12
S'objective'
p1181
sg14
I16
sg15
g1178
sg16
S'180732852973993984'
p1182
sg18
I13
sbs(S'267357551'
p1183
S'260832035642413056A'
tp1184
g4
(g5
g6
NtRp1185
(dp1186
g9
S'A'
sg10
g1183
sg11
Nsg12
S'objective'
p1187
sg14
I13
sg15
g1184
sg16
S'260832035642413056'
p1188
sg18
I0
sbs(S'312872826'
p1189
S'263636007587549185A'
tp1190
g4
(g5
g6
NtRp1191
(dp1192
g9
S'A'
sg10
g1189
sg11
Nsg12
S'objective'
p1193
sg14
I11
sg15
g1190
sg16
S'263636007587549185'
p1194
sg18
I0
sbs(S'118557560'
p1195
S'102902680632045568C'
tp1196
g4
(g5
g6
NtRp1197
(dp1198
g9
S'A'
sg10
g1195
sg11
Nsg12
S'objective'
p1199
sg14
I21
sg15
g1196
sg16
S'102902680632045568'
p1200
sg18
I5
sbs(S'68750781'
p1201
S'194202072520990720E'
tp1202
g4
(g5
g6
NtRp1203
(dp1204
g9
S'A'
sg10
g1201
sg11
Nsg12
S'objective'
p1205
sg14
I13
sg15
g1202
sg16
S'194202072520990720'
p1206
sg18
I6
sbs(S'38612928'
p1207
S'119494324760231937B'
tp1208
g4
(g5
g6
NtRp1209
(dp1210
g9
S'A'
sg10
g1207
sg11
Nsg12
S'positive'
p1211
sg14
I7
sg15
g1208
sg16
S'119494324760231937'
p1212
sg18
I6
sbs(S'167947794'
p1213
S'118167524167782401E'
tp1214
g4
(g5
g6
NtRp1215
(dp1216
g9
S'A'
sg10
g1213
sg11
Nsg12
S'objective'
p1217
sg14
I18
sg15
g1214
sg16
S'118167524167782401'
p1218
sg18
I17
sbs(S'117708301'
p1219
S'101800040519053315A'
tp1220
g4
(g5
g6
NtRp1221
(dp1222
g9
S'A'
sg10
g1219
sg11
Nsg12
S'objective'
p1223
sg14
I19
sg15
g1220
sg16
S'101800040519053315'
p1224
sg18
I0
sbs(S'165404022'
p1225
S'118166757763584000A'
tp1226
g4
(g5
g6
NtRp1227
(dp1228
g9
S'A'
sg10
g1225
sg11
Nsg12
S'objective'
p1229
sg14
I9
sg15
g1226
sg16
S'118166757763584000'
p1230
sg18
I0
sbs(S'23793186'
p1231
S'259014085281185793A'
tp1232
g4
(g5
g6
NtRp1233
(dp1234
g9
S'A'
sg10
g1231
sg11
Nsg12
S'objective'
p1235
sg14
I24
sg15
g1232
sg16
S'259014085281185793'
p1236
sg18
I0
sbs(S'733817984'
p1237
S'251727127060303873E'
tp1238
g4
(g5
g6
NtRp1239
(dp1240
g9
S'A'
sg10
g1237
sg11
Nsg12
S'objective'
p1241
sg14
I21
sg15
g1238
sg16
S'251727127060303873'
p1242
sg18
I21
sbs(S'287477398'
p1243
S'100185002276425728B'
tp1244
g4
(g5
g6
NtRp1245
(dp1246
g9
S'A'
sg10
g1243
sg11
Nsg12
S'positive'
p1247
sg14
I9
sg15
g1244
sg16
S'100185002276425728'
p1248
sg18
I9
sbs(S'370131557'
p1249
S'118482876625989632B'
tp1250
g4
(g5
g6
NtRp1251
(dp1252
g9
S'A'
sg10
g1249
sg11
Nsg12
S'positive'
p1253
sg14
I10
sg15
g1250
sg16
S'118482876625989632'
p1254
sg18
I10
sbs(S'279268715'
p1255
S'260187702429876226B'
tp1256
g4
(g5
g6
NtRp1257
(dp1258
g9
S'A'
sg10
g1255
sg11
Nsg12
S'positive'
p1259
sg14
I3
sg15
g1256
sg16
S'260187702429876226'
p1260
sg18
I3
sbs(S'501946653'
p1261
S'260889070509621249B'
tp1262
g4
(g5
g6
NtRp1263
(dp1264
g9
S'A'
sg10
g1261
sg11
Nsg12
S'objective'
p1265
sg14
I13
sg15
g1262
sg16
S'260889070509621249'
p1266
sg18
I2
sbs(S'223630163'
p1267
S'100348089285607425B'
tp1268
g4
(g5
g6
NtRp1269
(dp1270
g9
S'A'
sg10
g1267
sg11
Nsg12
S'positive'
p1271
sg14
I6
sg15
g1268
sg16
S'100348089285607425'
p1272
sg18
I6
sbs(S'297382357'
p1273
S'212454254445727744A'
tp1274
g4
(g5
g6
NtRp1275
(dp1276
g9
S'A'
sg10
g1273
sg11
Nsg12
S'positive'
p1277
sg14
I1
sg15
g1274
sg16
S'212454254445727744'
p1278
sg18
I0
sbs(S'198814114'
p1279
S'257824517202771969A'
tp1280
g4
(g5
g6
NtRp1281
(dp1282
g9
S'A'
sg10
g1279
sg11
Nsg12
S'objective'
p1283
sg14
I0
sg15
g1280
sg16
S'257824517202771969'
p1284
sg18
I0
sbs(S'112595760'
p1285
S'108034287944744960A'
tp1286
g4
(g5
g6
NtRp1287
(dp1288
g9
S'A'
sg10
g1285
sg11
Nsg12
S'objective'
p1289
sg14
I4
sg15
g1286
sg16
S'108034287944744960'
p1290
sg18
I0
sbs(S'171721620'
p1291
S'175160015462735872B'
tp1292
g4
(g5
g6
NtRp1293
(dp1294
g9
S'A'
sg10
g1291
sg11
Nsg12
S'positive'
p1295
sg14
I6
sg15
g1292
sg16
S'175160015462735872'
p1296
sg18
I6
sbs(S'208816833'
p1297
S'101058853269016577B'
tp1298
g4
(g5
g6
NtRp1299
(dp1300
g9
S'A'
sg10
g1297
sg11
Nsg12
S'positive'
p1301
sg14
I22
sg15
g1298
sg16
S'101058853269016577'
p1302
sg18
I22
sbs(S'27673803'
p1303
S'118362498155028480E'
tp1304
g4
(g5
g6
NtRp1305
(dp1306
g9
S'A'
sg10
g1303
sg11
Nsg12
S'objective'
p1307
sg14
I12
sg15
g1304
sg16
S'118362498155028480'
p1308
sg18
I4
sbs(S'185428677'
p1309
S'108232564933804032E'
tp1310
g4
(g5
g6
NtRp1311
(dp1312
g9
S'A'
sg10
g1309
sg11
Nsg12
S'objective'
p1313
sg14
I27
sg15
g1310
sg16
S'108232564933804032'
p1314
sg18
I15
sbs(S'149063337'
p1315
S'245844253408890880A'
tp1316
g4
(g5
g6
NtRp1317
(dp1318
g9
S'A'
sg10
g1315
sg11
Nsg12
S'objective'
p1319
sg14
I0
sg15
g1316
sg16
S'245844253408890880'
p1320
sg18
I0
sbs(S'22503207'
p1321
S'107688409455276032B'
tp1322
g4
(g5
g6
NtRp1323
(dp1324
g9
S'A'
sg10
g1321
sg11
Nsg12
S'objective'
p1325
sg14
I10
sg15
g1322
sg16
S'107688409455276032'
p1326
sg18
I2
sbs(S'346235321'
p1327
S'248144864997421056A'
tp1328
g4
(g5
g6
NtRp1329
(dp1330
g9
S'A'
sg10
g1327
sg11
Nsg12
S'objective'
p1331
sg14
I11
sg15
g1328
sg16
S'248144864997421056'
p1332
sg18
I0
sbs(S'104504069'
p1333
S'222708587808555008A'
tp1334
g4
(g5
g6
NtRp1335
(dp1336
g9
S'A'
sg10
g1333
sg11
Nsg12
S'objective'
p1337
sg14
I1
sg15
g1334
sg16
S'222708587808555008'
p1338
sg18
I0
sbs(S'19181741'
p1339
S'248122388099768320B'
tp1340
g4
(g5
g6
NtRp1341
(dp1342
g9
S'A'
sg10
g1339
sg11
Nsg12
S'negative'
p1343
sg14
I13
sg15
g1340
sg16
S'248122388099768320'
p1344
sg18
I12
sbs(S'19262942'
p1345
S'118167512838979584A'
tp1346
g4
(g5
g6
NtRp1347
(dp1348
g9
S'A'
sg10
g1345
sg11
Nsg12
S'objective'
p1349
sg14
I4
sg15
g1346
sg16
S'118167512838979584'
p1350
sg18
I0
sbs(S'104413181'
p1351
S'261693801532379136A'
tp1352
g4
(g5
g6
NtRp1353
(dp1354
g9
S'A'
sg10
g1351
sg11
Nsg12
S'objective'
p1355
sg14
I19
sg15
g1352
sg16
S'261693801532379136'
p1356
sg18
I0
sbs(S'394763270'
p1357
S'263984722617712640C'
tp1358
g4
(g5
g6
NtRp1359
(dp1360
g9
S'A'
sg10
g1357
sg11
Nsg12
S'objective'
p1361
sg14
I17
sg15
g1358
sg16
S'263984722617712640'
p1362
sg18
I16
sbs(S'50909879'
p1363
S'264200442886623232B'
tp1364
g4
(g5
g6
NtRp1365
(dp1366
g9
S'A'
sg10
g1363
sg11
Nsg12
S'negative'
p1367
sg14
I3
sg15
g1364
sg16
S'264200442886623232'
p1368
sg18
I2
sbs(S'101465967'
p1369
S'227992945368915969B'
tp1370
g4
(g5
g6
NtRp1371
(dp1372
g9
S'A'
sg10
g1369
sg11
Nsg12
S'positive'
p1373
sg14
I20
sg15
g1370
sg16
S'227992945368915969'
p1374
sg18
I19
sbs(S'72779300'
p1375
S'262792742982254592A'
tp1376
g4
(g5
g6
NtRp1377
(dp1378
g9
S'A'
sg10
g1375
sg11
Nsg12
S'objective'
p1379
sg14
I1
sg15
g1376
sg16
S'262792742982254592'
p1380
sg18
I0
sbs(S'94498989'
p1381
S'110180276801519616B'
tp1382
g4
(g5
g6
NtRp1383
(dp1384
g9
S'A'
sg10
g1381
sg11
Nsg12
S'objective'
p1385
sg14
I16
sg15
g1382
sg16
S'110180276801519616'
p1386
sg18
I2
sbs(S'373022265'
p1387
S'263986400012161024B'
tp1388
g4
(g5
g6
NtRp1389
(dp1390
g9
S'A'
sg10
g1387
sg11
Nsg12
S'positive'
p1391
sg14
I14
sg15
g1388
sg16
S'263986400012161024'
p1392
sg18
I13
sbs(S'261836654'
p1393
S'264132276349190146A'
tp1394
g4
(g5
g6
NtRp1395
(dp1396
g9
S'A'
sg10
g1393
sg11
Nsg12
S'objective'
p1397
sg14
I18
sg15
g1394
sg16
S'264132276349190146'
p1398
sg18
I0
sbs(S'31037343'
p1399
S'238453939270471680F'
tp1400
g4
(g5
g6
NtRp1401
(dp1402
g9
S'A'
sg10
g1399
sg11
Nsg12
S'positive'
p1403
sg14
I20
sg15
g1400
sg16
S'238453939270471680'
p1404
sg18
I19
sbs(S'394181065'
p1405
S'261903146836713472B'
tp1406
g4
(g5
g6
NtRp1407
(dp1408
g9
S'A'
sg10
g1405
sg11
Nsg12
S'objective'
p1409
sg14
I21
sg15
g1406
sg16
S'261903146836713472'
p1410
sg18
I3
sbs(S'167482641'
p1411
S'262921934981971970B'
tp1412
g4
(g5
g6
NtRp1413
(dp1414
g9
S'A'
sg10
g1411
sg11
Nsg12
S'positive'
p1415
sg14
I1
sg15
g1412
sg16
S'262921934981971970'
p1416
sg18
I1
sbs(S'153307673'
p1417
S'103429907421466624C'
tp1418
g4
(g5
g6
NtRp1419
(dp1420
g9
S'A'
sg10
g1417
sg11
Nsg12
S'objective'
p1421
sg14
I18
sg15
g1418
sg16
S'103429907421466624'
p1422
sg18
I5
sbs(S'19961694'
p1423
S'259884564359548928C'
tp1424
g4
(g5
g6
NtRp1425
(dp1426
g9
S'A'
sg10
g1423
sg11
Nsg12
S'objective'
p1427
sg14
I21
sg15
g1424
sg16
S'259884564359548928'
p1428
sg18
I6
sbs(S'61853316'
p1429
S'103081947517034496B'
tp1430
g4
(g5
g6
NtRp1431
(dp1432
g9
S'A'
sg10
g1429
sg11
Nsg12
S'positive'
p1433
sg14
I13
sg15
g1430
sg16
S'103081947517034496'
p1434
sg18
I13
sbs(S'132930248'
p1435
S'103233520188657664A'
tp1436
g4
(g5
g6
NtRp1437
(dp1438
g9
S'A'
sg10
g1435
sg11
Nsg12
S'objective'
p1439
sg14
I1
sg15
g1436
sg16
S'103233520188657664'
p1440
sg18
I0
sbs(S'417509923'
p1441
S'263366711196123137G'
tp1442
g4
(g5
g6
NtRp1443
(dp1444
g9
S'A'
sg10
g1441
sg11
Nsg12
S'objective'
p1445
sg14
I25
sg15
g1442
sg16
S'263366711196123137'
p1446
sg18
I25
sbs(S'114577718'
p1447
S'111356705631240192B'
tp1448
g4
(g5
g6
NtRp1449
(dp1450
g9
S'A'
sg10
g1447
sg11
Nsg12
S'objective'
p1451
sg14
I17
sg15
g1448
sg16
S'111356705631240192'
p1452
sg18
I1
sbs(S'103998818'
p1453
S'227832288061317121D'
tp1454
g4
(g5
g6
NtRp1455
(dp1456
g9
S'A'
sg10
g1453
sg11
Nsg12
S'negative'
p1457
sg14
I23
sg15
g1454
sg16
S'227832288061317121'
p1458
sg18
I22
sbs(S'427621336'
p1459
S'263998344404291585B'
tp1460
g4
(g5
g6
NtRp1461
(dp1462
g9
S'A'
sg10
g1459
sg11
Nsg12
S'negative'
p1463
sg14
I15
sg15
g1460
sg16
S'263998344404291585'
p1464
sg18
I15
sbs(S'113726128'
p1465
S'113365713082793984E'
tp1466
g4
(g5
g6
NtRp1467
(dp1468
g9
S'A'
sg10
g1465
sg11
Nsg12
S'objective'
p1469
sg14
I23
sg15
g1466
sg16
S'113365713082793984'
p1470
sg18
I12
sbs(S'290120812'
p1471
S'175147659059929089C'
tp1472
g4
(g5
g6
NtRp1473
(dp1474
g9
S'A'
sg10
g1471
sg11
Nsg12
S'objective'
p1475
sg14
I19
sg15
g1472
sg16
S'175147659059929089'
p1476
sg18
I6
sbs(S'153853944'
p1477
S'102251784126468096C'
tp1478
g4
(g5
g6
NtRp1479
(dp1480
g9
S'A'
sg10
g1477
sg11
Nsg12
S'objective'
p1481
sg14
I23
sg15
g1478
sg16
S'102251784126468096'
p1482
sg18
I23
sbs(S'156699481'
p1483
S'250030653821825025B'
tp1484
g4
(g5
g6
NtRp1485
(dp1486
g9
S'A'
sg10
g1483
sg11
Nsg12
S'positive'
p1487
sg14
I14
sg15
g1484
sg16
S'250030653821825025'
p1488
sg18
I14
sbs(S'281258276'
p1489
S'100348025205030913B'
tp1490
g4
(g5
g6
NtRp1491
(dp1492
g9
S'A'
sg10
g1489
sg11
Nsg12
S'positive'
p1493
sg14
I4
sg15
g1490
sg16
S'100348025205030913'
p1494
sg18
I4
sbs(S'19961694'
p1495
S'259612493649948673B'
tp1496
g4
(g5
g6
NtRp1497
(dp1498
g9
S'A'
sg10
g1495
sg11
Nsg12
S'positive'
p1499
sg14
I4
sg15
g1496
sg16
S'259612493649948673'
p1500
sg18
I4
sbs(S'367155425'
p1501
S'256827998165151744C'
tp1502
g4
(g5
g6
NtRp1503
(dp1504
g9
S'A'
sg10
g1501
sg11
Nsg12
S'objective'
p1505
sg14
I16
sg15
g1502
sg16
S'256827998165151744'
p1506
sg18
I10
sbs(S'246222514'
p1507
S'107189808840978432D'
tp1508
g4
(g5
g6
NtRp1509
(dp1510
g9
S'A'
sg10
g1507
sg11
Nsg12
S'positive'
p1511
sg14
I23
sg15
g1508
sg16
S'107189808840978432'
p1512
sg18
I20
sbs(S'296502129'
p1513
S'103263897712201731C'
tp1514
g4
(g5
g6
NtRp1515
(dp1516
g9
S'A'
sg10
g1513
sg11
Nsg12
S'objective'
p1517
sg14
I29
sg15
g1514
sg16
S'103263897712201731'
p1518
sg18
I7
sbs(S'29597497'
p1519
S'104667078665048064B'
tp1520
g4
(g5
g6
NtRp1521
(dp1522
g9
S'A'
sg10
g1519
sg11
Nsg12
S'positive'
p1523
sg14
I3
sg15
g1520
sg16
S'104667078665048064'
p1524
sg18
I3
sbs(S'310231044'
p1525
S'104185967795122176A'
tp1526
g4
(g5
g6
NtRp1527
(dp1528
g9
S'A'
sg10
g1525
sg11
Nsg12
S'objective'
p1529
sg14
I26
sg15
g1526
sg16
S'104185967795122176'
p1530
sg18
I0
sbs(S'194599631'
p1531
S'253589966662299648A'
tp1532
g4
(g5
g6
NtRp1533
(dp1534
g9
S'A'
sg10
g1531
sg11
Nsg12
S'objective'
p1535
sg14
I19
sg15
g1532
sg16
S'253589966662299648'
p1536
sg18
I0
sbs(S'177603947'
p1537
S'259135606137966593A'
tp1538
g4
(g5
g6
NtRp1539
(dp1540
g9
S'A'
sg10
g1537
sg11
Nsg12
S'positive'
p1541
sg14
I0
sg15
g1538
sg16
S'259135606137966593'
p1542
sg18
I0
sbs(S'342501741'
p1543
S'103142957296795648A'
tp1544
g4
(g5
g6
NtRp1545
(dp1546
g9
S'A'
sg10
g1543
sg11
Nsg12
S'objective'
p1547
sg14
I0
sg15
g1544
sg16
S'103142957296795648'
p1548
sg18
I0
sbs(S'339438835'
p1549
S'101680607809122305A'
tp1550
g4
(g5
g6
NtRp1551
(dp1552
g9
S'A'
sg10
g1549
sg11
Nsg12
S'objective'
p1553
sg14
I12
sg15
g1550
sg16
S'101680607809122305'
p1554
sg18
I0
sbs(S'384272833'
p1555
S'256368779594964992A'
tp1556
g4
(g5
g6
NtRp1557
(dp1558
g9
S'A'
sg10
g1555
sg11
Nsg12
S'objective'
p1559
sg14
I18
sg15
g1556
sg16
S'256368779594964992'
p1560
sg18
I0
sbs(S'21925335'
p1561
S'220220804338679809C'
tp1562
g4
(g5
g6
NtRp1563
(dp1564
g9
S'A'
sg10
g1561
sg11
Nsg12
S'objective'
p1565
sg14
I21
sg15
g1562
sg16
S'220220804338679809'
p1566
sg18
I15
sbs(S'162904928'
p1567
S'100395453350297600B'
tp1568
g4
(g5
g6
NtRp1569
(dp1570
g9
S'A'
sg10
g1567
sg11
Nsg12
S'positive'
p1571
sg14
I1
sg15
g1568
sg16
S'100395453350297600'
p1572
sg18
I1
sbs(S'248839886'
p1573
S'262522947984572416E'
tp1574
g4
(g5
g6
NtRp1575
(dp1576
g9
S'A'
sg10
g1573
sg11
Nsg12
S'objective'
p1577
sg14
I18
sg15
g1574
sg16
S'262522947984572416'
p1578
sg18
I14
sbs(S'436975790'
p1579
S'263332884411215873B'
tp1580
g4
(g5
g6
NtRp1581
(dp1582
g9
S'A'
sg10
g1579
sg11
Nsg12
S'positive'
p1583
sg14
I20
sg15
g1580
sg16
S'263332884411215873'
p1584
sg18
I20
sbs(S'191945151'
p1585
S'263786661517860865C'
tp1586
g4
(g5
g6
NtRp1587
(dp1588
g9
S'A'
sg10
g1585
sg11
Nsg12
S'objective'
p1589
sg14
I18
sg15
g1586
sg16
S'263786661517860865'
p1590
sg18
I6
sbs(S'324748107'
p1591
S'100517814976266242E'
tp1592
g4
(g5
g6
NtRp1593
(dp1594
g9
S'A'
sg10
g1591
sg11
Nsg12
S'objective'
p1595
sg14
I18
sg15
g1592
sg16
S'100517814976266242'
p1596
sg18
I17
sbs(S'757089673'
p1597
S'241711277532119040C'
tp1598
g4
(g5
g6
NtRp1599
(dp1600
g9
S'A'
sg10
g1597
sg11
Nsg12
S'positive'
p1601
sg14
I8
sg15
g1598
sg16
S'241711277532119040'
p1602
sg18
I7
sbs(S'553372405'
p1603
S'264055375685361664A'
tp1604
g4
(g5
g6
NtRp1605
(dp1606
g9
S'A'
sg10
g1603
sg11
Nsg12
S'objective'
p1607
sg14
I21
sg15
g1604
sg16
S'264055375685361664'
p1608
sg18
I0
sbs(S'62823680'
p1609
S'261572875306291200A'
tp1610
g4
(g5
g6
NtRp1611
(dp1612
g9
S'A'
sg10
g1609
sg11
Nsg12
S'positive'
p1613
sg14
I1
sg15
g1610
sg16
S'261572875306291200'
p1614
sg18
I0
sbs(S'67071435'
p1615
S'101663482537181184C'
tp1616
g4
(g5
g6
NtRp1617
(dp1618
g9
S'A'
sg10
g1615
sg11
Nsg12
S'objective'
p1619
sg14
I9
sg15
g1616
sg16
S'101663482537181184'
p1620
sg18
I4
sbs(S'531310923'
p1621
S'256746338073587712A'
tp1622
g4
(g5
g6
NtRp1623
(dp1624
g9
S'A'
sg10
g1621
sg11
Nsg12
S'objective'
p1625
sg14
I0
sg15
g1622
sg16
S'256746338073587712'
p1626
sg18
I0
sbs(S'69948216'
p1627
S'228698918727340032B'
tp1628
g4
(g5
g6
NtRp1629
(dp1630
g9
S'A'
sg10
g1627
sg11
Nsg12
S'neutral'
p1631
sg14
I1
sg15
g1628
sg16
S'228698918727340032'
p1632
sg18
I1
sbs(S'68244172'
p1633
S'263610585143459843B'
tp1634
g4
(g5
g6
NtRp1635
(dp1636
g9
S'A'
sg10
g1633
sg11
Nsg12
S'positive'
p1637
sg14
I2
sg15
g1634
sg16
S'263610585143459843'
p1638
sg18
I2
sbs(S'63532465'
p1639
S'100665193335500800B'
tp1640
g4
(g5
g6
NtRp1641
(dp1642
g9
S'A'
sg10
g1639
sg11
Nsg12
S'negative'
p1643
sg14
I10
sg15
g1640
sg16
S'100665193335500800'
p1644
sg18
I10
sbs(S'301301949'
p1645
S'234433845917802496A'
tp1646
g4
(g5
g6
NtRp1647
(dp1648
g9
S'A'
sg10
g1645
sg11
Nsg12
S'objective'
p1649
sg14
I2
sg15
g1646
sg16
S'234433845917802496'
p1650
sg18
I0
sbs(S'148181135'
p1651
S'104216608972607488A'
tp1652
g4
(g5
g6
NtRp1653
(dp1654
g9
S'A'
sg10
g1651
sg11
Nsg12
S'objective'
p1655
sg14
I4
sg15
g1652
sg16
S'104216608972607488'
p1656
sg18
I0
sbs(S'401099806'
p1657
S'253310466024169472A'
tp1658
g4
(g5
g6
NtRp1659
(dp1660
g9
S'A'
sg10
g1657
sg11
Nsg12
S'objective'
p1661
sg14
I19
sg15
g1658
sg16
S'253310466024169472'
p1662
sg18
I16
sbs(S'290120812'
p1663
S'175147659059929089D'
tp1664
g4
(g5
g6
NtRp1665
(dp1666
g9
S'A'
sg10
g1663
sg11
Nsg12
S'positive'
p1667
sg14
I20
sg15
g1664
sg16
S'175147659059929089'
p1668
sg18
I20
sbs(S'279268715'
p1669
S'260187702429876226D'
tp1670
g4
(g5
g6
NtRp1671
(dp1672
g9
S'A'
sg10
g1669
sg11
Nsg12
S'negative'
p1673
sg14
I9
sg15
g1670
sg16
S'260187702429876226'
p1674
sg18
I7
sbs(S'851443645'
p1675
S'252108209513455616E'
tp1676
g4
(g5
g6
NtRp1677
(dp1678
g9
S'A'
sg10
g1675
sg11
Nsg12
S'objective'
p1679
sg14
I20
sg15
g1676
sg16
S'252108209513455616'
p1680
sg18
I12
sbs(S'247808931'
p1681
S'113349761364529152A'
tp1682
g4
(g5
g6
NtRp1683
(dp1684
g9
S'A'
sg10
g1681
sg11
Nsg12
S'objective'
p1685
sg14
I25
sg15
g1682
sg16
S'113349761364529152'
p1686
sg18
I0
sbs(S'178634171'
p1687
S'222350785583923200D'
tp1688
g4
(g5
g6
NtRp1689
(dp1690
g9
S'A'
sg10
g1687
sg11
Nsg12
S'positive'
p1691
sg14
I17
sg15
g1688
sg16
S'222350785583923200'
p1692
sg18
I17
sbs(S'11282622'
p1693
S'195015914754818048A'
tp1694
g4
(g5
g6
NtRp1695
(dp1696
g9
S'A'
sg10
g1693
sg11
Nsg12
S'objective'
p1697
sg14
I1
sg15
g1694
sg16
S'195015914754818048'
p1698
sg18
I0
sbs(S'753528871'
p1699
S'264089658097549312A'
tp1700
g4
(g5
g6
NtRp1701
(dp1702
g9
S'A'
sg10
g1699
sg11
Nsg12
S'objective'
p1703
sg14
I14
sg15
g1700
sg16
S'264089658097549312'
p1704
sg18
I0
sbs(S'231241483'
p1705
S'255370271702265857B'
tp1706
g4
(g5
g6
NtRp1707
(dp1708
g9
S'A'
sg10
g1705
sg11
Nsg12
S'negative'
p1709
sg14
I19
sg15
g1706
sg16
S'255370271702265857'
p1710
sg18
I18
sbs(S'44434255'
p1711
S'245062966679064576C'
tp1712
g4
(g5
g6
NtRp1713
(dp1714
g9
S'A'
sg10
g1711
sg11
Nsg12
S'objective'
p1715
sg14
I19
sg15
g1712
sg16
S'245062966679064576'
p1716
sg18
I16
sbs(S'67036119'
p1717
S'104682745376161792C'
tp1718
g4
(g5
g6
NtRp1719
(dp1720
g9
S'A'
sg10
g1717
sg11
Nsg12
S'positive'
p1721
sg14
I3
sg15
g1718
sg16
S'104682745376161792'
p1722
sg18
I2
sbs(S'353946567'
p1723
S'108201763772960769D'
tp1724
g4
(g5
g6
NtRp1725
(dp1726
g9
S'A'
sg10
g1723
sg11
Nsg12
S'positive'
p1727
sg14
I19
sg15
g1724
sg16
S'108201763772960769'
p1728
sg18
I18
sbs(S'143100038'
p1729
S'100290591446925312C'
tp1730
g4
(g5
g6
NtRp1731
(dp1732
g9
S'A'
sg10
g1729
sg11
Nsg12
S'objective'
p1733
sg14
I21
sg15
g1730
sg16
S'100290591446925312'
p1734
sg18
I21
sbs(S'54395259'
p1735
S'100461938533863424D'
tp1736
g4
(g5
g6
NtRp1737
(dp1738
g9
S'A'
sg10
g1735
sg11
Nsg12
S'positive'
p1739
sg14
I13
sg15
g1736
sg16
S'100461938533863424'
p1740
sg18
I12
sbs(S'153307673'
p1741
S'103429907421466624B'
tp1742
g4
(g5
g6
NtRp1743
(dp1744
g9
S'A'
sg10
g1741
sg11
Nsg12
S'positive'
p1745
sg14
I4
sg15
g1742
sg16
S'103429907421466624'
p1746
sg18
I3
sbs(S'29548978'
p1747
S'115268610204766209B'
tp1748
g4
(g5
g6
NtRp1749
(dp1750
g9
S'A'
sg10
g1747
sg11
Nsg12
S'objective'
p1751
sg14
I3
sg15
g1748
sg16
S'115268610204766209'
p1752
sg18
I2
sbs(S'286960127'
p1753
S'261623151371354112A'
tp1754
g4
(g5
g6
NtRp1755
(dp1756
g9
S'A'
sg10
g1753
sg11
Nsg12
S'objective'
p1757
sg14
I17
sg15
g1754
sg16
S'261623151371354112'
p1758
sg18
I0
sbs(S'318670582'
p1759
S'102855541625335808A'
tp1760
g4
(g5
g6
NtRp1761
(dp1762
g9
S'A'
sg10
g1759
sg11
Nsg12
S'objective'
p1763
sg14
I8
sg15
g1760
sg16
S'102855541625335808'
p1764
sg18
I0
sbs(S'214307858'
p1765
S'101496696877486080B'
tp1766
g4
(g5
g6
NtRp1767
(dp1768
g9
S'A'
sg10
g1765
sg11
Nsg12
S'negative'
p1769
sg14
I1
sg15
g1766
sg16
S'101496696877486080'
p1770
sg18
I1
sbs(S'126024490'
p1771
S'248002296993177601C'
tp1772
g4
(g5
g6
NtRp1773
(dp1774
g9
S'A'
sg10
g1771
sg11
Nsg12
S'objective'
p1775
sg14
I18
sg15
g1772
sg16
S'248002296993177601'
p1776
sg18
I2
sbs(S'113726128'
p1777
S'113365713082793984B'
tp1778
g4
(g5
g6
NtRp1779
(dp1780
g9
S'A'
sg10
g1777
sg11
Nsg12
S'positive'
p1781
sg14
I7
sg15
g1778
sg16
S'113365713082793984'
p1782
sg18
I7
sbs(S'21868696'
p1783
S'262537578459303936B'
tp1784
g4
(g5
g6
NtRp1785
(dp1786
g9
S'A'
sg10
g1783
sg11
Nsg12
S'positive'
p1787
sg14
I6
sg15
g1784
sg16
S'262537578459303936'
p1788
sg18
I6
sbs(S'346400200'
p1789
S'264204445036974081A'
tp1790
g4
(g5
g6
NtRp1791
(dp1792
g9
S'A'
sg10
g1789
sg11
Nsg12
S'objective'
p1793
sg14
I10
sg15
g1790
sg16
S'264204445036974081'
p1794
sg18
I0
sbs(S'167450610'
p1795
S'101269868329963520A'
tp1796
g4
(g5
g6
NtRp1797
(dp1798
g9
S'A'
sg10
g1795
sg11
Nsg12
S'objective'
p1799
sg14
I11
sg15
g1796
sg16
S'101269868329963520'
p1800
sg18
I0
sbs(S'242341937'
p1801
S'248370653286240256B'
tp1802
g4
(g5
g6
NtRp1803
(dp1804
g9
S'A'
sg10
g1801
sg11
Nsg12
S'objective'
p1805
sg14
I4
sg15
g1802
sg16
S'248370653286240256'
p1806
sg18
I1
sbs(S'21147857'
p1807
S'112942998647619585A'
tp1808
g4
(g5
g6
NtRp1809
(dp1810
g9
S'A'
sg10
g1807
sg11
Nsg12
S'objective'
p1811
sg14
I22
sg15
g1808
sg16
S'112942998647619585'
p1812
sg18
I0
sbs(S'530919604'
p1813
S'229644255537266688A'
tp1814
g4
(g5
g6
NtRp1815
(dp1816
g9
S'A'
sg10
g1813
sg11
Nsg12
S'objective'
p1817
sg14
I15
sg15
g1814
sg16
S'229644255537266688'
p1818
sg18
I0
sbs(S'550957683'
p1819
S'240515102988697601C'
tp1820
g4
(g5
g6
NtRp1821
(dp1822
g9
S'A'
sg10
g1819
sg11
Nsg12
S'objective'
p1823
sg14
I22
sg15
g1820
sg16
S'240515102988697601'
p1824
sg18
I11
sbs(S'245147147'
p1825
S'264050462670614528C'
tp1826
g4
(g5
g6
NtRp1827
(dp1828
g9
S'A'
sg10
g1825
sg11
Nsg12
S'positive'
p1829
sg14
I6
sg15
g1826
sg16
S'264050462670614528'
p1830
sg18
I5
sbs(S'127567306'
p1831
S'261452792298864640B'
tp1832
g4
(g5
g6
NtRp1833
(dp1834
g9
S'A'
sg10
g1831
sg11
Nsg12
S'objective'
p1835
sg14
I21
sg15
g1832
sg16
S'261452792298864640'
p1836
sg18
I2
sbs(S'836090858'
p1837
S'258968332940767232A'
tp1838
g4
(g5
g6
NtRp1839
(dp1840
g9
S'A'
sg10
g1837
sg11
Nsg12
S'objective'
p1841
sg14
I20
sg15
g1838
sg16
S'258968332940767232'
p1842
sg18
I0
sbs(S'59507141'
p1843
S'254381435228680193C'
tp1844
g4
(g5
g6
NtRp1845
(dp1846
g9
S'A'
sg10
g1843
sg11
Nsg12
S'objective'
p1847
sg14
I23
sg15
g1844
sg16
S'254381435228680193'
p1848
sg18
I12
sbs(S'805583215'
p1849
S'243497030423572480A'
tp1850
g4
(g5
g6
NtRp1851
(dp1852
g9
S'A'
sg10
g1849
sg11
Nsg12
S'objective'
p1853
sg14
I17
sg15
g1850
sg16
S'243497030423572480'
p1854
sg18
I0
sbs(S'417509923'
p1855
S'263366711196123137C'
tp1856
g4
(g5
g6
NtRp1857
(dp1858
g9
S'A'
sg10
g1855
sg11
Nsg12
S'objective'
p1859
sg14
I18
sg15
g1856
sg16
S'263366711196123137'
p1860
sg18
I2
sbs(S'18638403'
p1861
S'264048820730621953A'
tp1862
g4
(g5
g6
NtRp1863
(dp1864
g9
S'A'
sg10
g1861
sg11
Nsg12
S'objective'
p1865
sg14
I19
sg15
g1862
sg16
S'264048820730621953'
p1866
sg18
I0
sbs(S'147899715'
p1867
S'263804057913815040A'
tp1868
g4
(g5
g6
NtRp1869
(dp1870
g9
S'A'
sg10
g1867
sg11
Nsg12
S'objective'
p1871
sg14
I3
sg15
g1868
sg16
S'263804057913815040'
p1872
sg18
I0
sbs(S'330820589'
p1873
S'112942221946404864B'
tp1874
g4
(g5
g6
NtRp1875
(dp1876
g9
S'A'
sg10
g1873
sg11
Nsg12
S'positive'
p1877
sg14
I25
sg15
g1874
sg16
S'112942221946404864'
p1878
sg18
I23
sbs(S'21137575'
p1879
S'264264628408832000A'
tp1880
g4
(g5
g6
NtRp1881
(dp1882
g9
S'A'
sg10
g1879
sg11
Nsg12
S'objective'
p1883
sg14
I9
sg15
g1880
sg16
S'264264628408832000'
p1884
sg18
I0
sbs(S'34877293'
p1885
S'100001362305236993C'
tp1886
g4
(g5
g6
NtRp1887
(dp1888
g9
S'A'
sg10
g1885
sg11
Nsg12
S'objective'
p1889
sg14
I20
sg15
g1886
sg16
S'100001362305236993'
p1890
sg18
I2
sbs(S'138926426'
p1891
S'242217227825340417A'
tp1892
g4
(g5
g6
NtRp1893
(dp1894
g9
S'A'
sg10
g1891
sg11
Nsg12
S'objective'
p1895
sg14
I2
sg15
g1892
sg16
S'242217227825340417'
p1896
sg18
I0
sbs(S'118384493'
p1897
S'104515631365365761C'
tp1898
g4
(g5
g6
NtRp1899
(dp1900
g9
S'A'
sg10
g1897
sg11
Nsg12
S'positive'
p1901
sg14
I9
sg15
g1898
sg16
S'104515631365365761'
p1902
sg18
I9
sbs(S'277402775'
p1903
S'175149273875353601A'
tp1904
g4
(g5
g6
NtRp1905
(dp1906
g9
S'A'
sg10
g1903
sg11
Nsg12
S'objective'
p1907
sg14
I14
sg15
g1904
sg16
S'175149273875353601'
p1908
sg18
I0
sbs(S'866709174'
p1909
S'262501520535339008E'
tp1910
g4
(g5
g6
NtRp1911
(dp1912
g9
S'A'
sg10
g1909
sg11
Nsg12
S'objective'
p1913
sg14
I12
sg15
g1910
sg16
S'262501520535339008'
p1914
sg18
I10
sbs(S'35990273'
p1915
S'247031555493621762E'
tp1916
g4
(g5
g6
NtRp1917
(dp1918
g9
S'A'
sg10
g1915
sg11
Nsg12
S'objective'
p1919
sg14
I22
sg15
g1916
sg16
S'247031555493621762'
p1920
sg18
I21
sbs(S'178634171'
p1921
S'222350785583923200C'
tp1922
g4
(g5
g6
NtRp1923
(dp1924
g9
S'A'
sg10
g1921
sg11
Nsg12
S'objective'
p1925
sg14
I16
sg15
g1922
sg16
S'222350785583923200'
p1926
sg18
I7
sbs(S'16397103'
p1927
S'101438889968939008D'
tp1928
g4
(g5
g6
NtRp1929
(dp1930
g9
S'A'
sg10
g1927
sg11
Nsg12
S'negative'
p1931
sg14
I16
sg15
g1928
sg16
S'101438889968939008'
p1932
sg18
I16
sbs(S'321496438'
p1933
S'167545861423890432B'
tp1934
g4
(g5
g6
NtRp1935
(dp1936
g9
S'A'
sg10
g1933
sg11
Nsg12
S'negative'
p1937
sg14
I3
sg15
g1934
sg16
S'167545861423890432'
p1938
sg18
I3
sbs(S'511191300'
p1939
S'263743557779734528B'
tp1940
g4
(g5
g6
NtRp1941
(dp1942
g9
S'A'
sg10
g1939
sg11
Nsg12
S'positive'
p1943
sg14
I17
sg15
g1940
sg16
S'263743557779734528'
p1944
sg18
I14
sbs(S'251477467'
p1945
S'104380375945576448A'
tp1946
g4
(g5
g6
NtRp1947
(dp1948
g9
S'A'
sg10
g1945
sg11
Nsg12
S'objective'
p1949
sg14
I1
sg15
g1946
sg16
S'104380375945576448'
p1950
sg18
I0
sbs(S'154969629'
p1951
S'100381935729262592C'
tp1952
g4
(g5
g6
NtRp1953
(dp1954
g9
S'A'
sg10
g1951
sg11
Nsg12
S'objective'
p1955
sg14
I24
sg15
g1952
sg16
S'100381935729262592'
p1956
sg18
I2
sbs(S'339438835'
p1957
S'101680607809122305B'
tp1958
g4
(g5
g6
NtRp1959
(dp1960
g9
S'A'
sg10
g1957
sg11
Nsg12
S'positive'
p1961
sg14
I14
sg15
g1958
sg16
S'101680607809122305'
p1962
sg18
I13
sbs(S'164355373'
p1963
S'118151992605556736B'
tp1964
g4
(g5
g6
NtRp1965
(dp1966
g9
S'A'
sg10
g1963
sg11
Nsg12
S'negative'
p1967
sg14
I8
sg15
g1964
sg16
S'118151992605556736'
p1968
sg18
I8
sbs(S'347915191'
p1969
S'100274052534501376C'
tp1970
g4
(g5
g6
NtRp1971
(dp1972
g9
S'A'
sg10
g1969
sg11
Nsg12
S'objective'
p1973
sg14
I2
sg15
g1970
sg16
S'100274052534501376'
p1974
sg18
I2
sbs(S'119519641'
p1975
S'263962593155219456D'
tp1976
g4
(g5
g6
NtRp1977
(dp1978
g9
S'A'
sg10
g1975
sg11
Nsg12
S'positive'
p1979
sg14
I11
sg15
g1976
sg16
S'263962593155219456'
p1980
sg18
I11
sbs(S'412870727'
p1981
S'261685399196405761A'
tp1982
g4
(g5
g6
NtRp1983
(dp1984
g9
S'A'
sg10
g1981
sg11
Nsg12
S'objective'
p1985
sg14
I16
sg15
g1982
sg16
S'261685399196405761'
p1986
sg18
I0
sbs(S'911747616'
p1987
S'264070712468320256C'
tp1988
g4
(g5
g6
NtRp1989
(dp1990
g9
S'A'
sg10
g1987
sg11
Nsg12
S'objective'
p1991
sg14
I26
sg15
g1988
sg16
S'264070712468320256'
p1992
sg18
I6
sbs(S'407998827'
p1993
S'264165994702979072A'
tp1994
g4
(g5
g6
NtRp1995
(dp1996
g9
S'A'
sg10
g1993
sg11
Nsg12
S'objective'
p1997
sg14
I20
sg15
g1994
sg16
S'264165994702979072'
p1998
sg18
I0
sbs(S'242341937'
p1999
S'248370653286240256E'
tp2000
g4
(g5
g6
NtRp2001
(dp2002
g9
S'A'
sg10
g1999
sg11
Nsg12
S'positive'
p2003
sg14
I10
sg15
g2000
sg16
S'248370653286240256'
p2004
sg18
I10
sbs(S'267357551'
p2005
S'260832035642413056C'
tp2006
g4
(g5
g6
NtRp2007
(dp2008
g9
S'A'
sg10
g2005
sg11
Nsg12
S'objective'
p2009
sg14
I18
sg15
g2006
sg16
S'260832035642413056'
p2010
sg18
I16
sbs(S'321496438'
p2011
S'259358550869024768C'
tp2012
g4
(g5
g6
NtRp2013
(dp2014
g9
S'A'
sg10
g2011
sg11
Nsg12
S'objective'
p2015
sg14
I19
sg15
g2012
sg16
S'259358550869024768'
p2016
sg18
I6
sbs(S'40487899'
p2017
S'109409380293816321A'
tp2018
g4
(g5
g6
NtRp2019
(dp2020
g9
S'A'
sg10
g2017
sg11
Nsg12
S'objective'
p2021
sg14
I24
sg15
g2018
sg16
S'109409380293816321'
p2022
sg18
I0
sbs(S'68750781'
p2023
S'194202072520990720C'
tp2024
g4
(g5
g6
NtRp2025
(dp2026
g9
S'A'
sg10
g2023
sg11
Nsg12
S'objective'
p2027
sg14
I4
sg15
g2024
sg16
S'194202072520990720'
p2028
sg18
I2
sbs(S'557548188'
p2029
S'263158815116128256C'
tp2030
g4
(g5
g6
NtRp2031
(dp2032
g9
S'A'
sg10
g2029
sg11
Nsg12
S'objective'
p2033
sg14
I21
sg15
g2030
sg16
S'263158815116128256'
p2034
sg18
I15
sbs(S'22702818'
p2035
S'263333002220826624A'
tp2036
g4
(g5
g6
NtRp2037
(dp2038
g9
S'A'
sg10
g2035
sg11
Nsg12
S'objective'
p2039
sg14
I23
sg15
g2036
sg16
S'263333002220826624'
p2040
sg18
I0
sbs(S'168793226'
p2041
S'104576641904279552B'
tp2042
g4
(g5
g6
NtRp2043
(dp2044
g9
S'A'
sg10
g2041
sg11
Nsg12
S'objective'
p2045
sg14
I1
sg15
g2042
sg16
S'104576641904279552'
p2046
sg18
I1
sbs(S'54395259'
p2047
S'100461938533863424B'
tp2048
g4
(g5
g6
NtRp2049
(dp2050
g9
S'A'
sg10
g2047
sg11
Nsg12
S'negative'
p2051
sg14
I1
sg15
g2048
sg16
S'100461938533863424'
p2052
sg18
I1
sbs(S'165350893'
p2053
S'103158179306807296E'
tp2054
g4
(g5
g6
NtRp2055
(dp2056
g9
S'A'
sg10
g2053
sg11
Nsg12
S'objective'
p2057
sg14
I17
sg15
g2054
sg16
S'103158179306807296'
p2058
sg18
I16
sbs(S'733817984'
p2059
S'251727127060303873C'
tp2060
g4
(g5
g6
NtRp2061
(dp2062
g9
S'A'
sg10
g2059
sg11
Nsg12
S'objective'
p2063
sg14
I19
sg15
g2060
sg16
S'251727127060303873'
p2064
sg18
I17
sbs(S'181241054'
p2065
S'257683804074958848A'
tp2066
g4
(g5
g6
NtRp2067
(dp2068
g9
S'A'
sg10
g2065
sg11
Nsg12
S'objective'
p2069
sg14
I21
sg15
g2066
sg16
S'257683804074958848'
p2070
sg18
I0
sbs(S'498268108'
p2071
S'262684431821701120A'
tp2072
g4
(g5
g6
NtRp2073
(dp2074
g9
S'A'
sg10
g2071
sg11
Nsg12
S'positive'
p2075
sg14
I0
sg15
g2072
sg16
S'262684431821701120'
p2076
sg18
I0
sbs(S'337700729'
p2077
S'248401241196085248D'
tp2078
g4
(g5
g6
NtRp2079
(dp2080
g9
S'A'
sg10
g2077
sg11
Nsg12
S'positive'
p2081
sg14
I9
sg15
g2078
sg16
S'248401241196085248'
p2082
sg18
I9
sbs(S'297382357'
p2083
S'212454254445727744B'
tp2084
g4
(g5
g6
NtRp2085
(dp2086
g9
S'A'
sg10
g2083
sg11
Nsg12
S'objective'
p2087
sg14
I15
sg15
g2084
sg16
S'212454254445727744'
p2088
sg18
I2
sbs(S'33586366'
p2089
S'260105138251890688C'
tp2090
g4
(g5
g6
NtRp2091
(dp2092
g9
S'A'
sg10
g2089
sg11
Nsg12
S'objective'
p2093
sg14
I10
sg15
g2090
sg16
S'260105138251890688'
p2094
sg18
I3
sbs(S'553882398'
p2095
S'240195388693413891B'
tp2096
g4
(g5
g6
NtRp2097
(dp2098
g9
S'A'
sg10
g2095
sg11
Nsg12
S'positive'
p2099
sg14
I6
sg15
g2096
sg16
S'240195388693413891'
p2100
sg18
I5
sbs(S'103998818'
p2101
S'227832288061317121A'
tp2102
g4
(g5
g6
NtRp2103
(dp2104
g9
S'A'
sg10
g2101
sg11
Nsg12
S'objective'
p2105
sg14
I8
sg15
g2102
sg16
S'227832288061317121'
p2106
sg18
I0
sbs(S'322342303'
p2107
S'101828209850580993C'
tp2108
g4
(g5
g6
NtRp2109
(dp2110
g9
S'A'
sg10
g2107
sg11
Nsg12
S'objective'
p2111
sg14
I18
sg15
g2108
sg16
S'101828209850580993'
p2112
sg18
I7
sbs(S'51755720'
p2113
S'103174922511192064D'
tp2114
g4
(g5
g6
NtRp2115
(dp2116
g9
S'A'
sg10
g2113
sg11
Nsg12
S'objective'
p2117
sg14
I29
sg15
g2114
sg16
S'103174922511192064'
p2118
sg18
I18
sbs(S'191155404'
p2119
S'103053326127603712B'
tp2120
g4
(g5
g6
NtRp2121
(dp2122
g9
S'A'
sg10
g2119
sg11
Nsg12
S'objective'
p2123
sg14
I9
sg15
g2120
sg16
S'103053326127603712'
p2124
sg18
I2
sbs(S'249320924'
p2125
S'100046752241041409C'
tp2126
g4
(g5
g6
NtRp2127
(dp2128
g9
S'A'
sg10
g2125
sg11
Nsg12
S'objective'
p2129
sg14
I17
sg15
g2126
sg16
S'100046752241041409'
p2130
sg18
I4
sbs(S'27673803'
p2131
S'118362498155028480C'
tp2132
g4
(g5
g6
NtRp2133
(dp2134
g9
S'A'
sg10
g2131
sg11
Nsg12
S'objective'
p2135
sg14
I2
sg15
g2132
sg16
S'118362498155028480'
p2136
sg18
I2
sbs(S'242906865'
p2137
S'264064628336779264A'
tp2138
g4
(g5
g6
NtRp2139
(dp2140
g9
S'A'
sg10
g2137
sg11
Nsg12
S'objective'
p2141
sg14
I10
sg15
g2138
sg16
S'264064628336779264'
p2142
sg18
I0
sbs(S'116848357'
p2143
S'257292826776322048B'
tp2144
g4
(g5
g6
NtRp2145
(dp2146
g9
S'A'
sg10
g2143
sg11
Nsg12
S'objective'
p2147
sg14
I9
sg15
g2144
sg16
S'257292826776322048'
p2148
sg18
I3
sbs(S'185428677'
p2149
S'108232564933804032C'
tp2150
g4
(g5
g6
NtRp2151
(dp2152
g9
S'A'
sg10
g2149
sg11
Nsg12
S'objective'
p2153
sg14
I13
sg15
g2150
sg16
S'108232564933804032'
p2154
sg18
I10
sbs(S'170938747'
p2155
S'263816911874314240D'
tp2156
g4
(g5
g6
NtRp2157
(dp2158
g9
S'A'
sg10
g2155
sg11
Nsg12
S'negative'
p2159
sg14
I11
sg15
g2156
sg16
S'263816911874314240'
p2160
sg18
I11
sbs(S'149063337'
p2161
S'245844253408890880C'
tp2162
g4
(g5
g6
NtRp2163
(dp2164
g9
S'A'
sg10
g2161
sg11
Nsg12
S'objective'
p2165
sg14
I20
sg15
g2162
sg16
S'245844253408890880'
p2166
sg18
I3
sbs(S'382266591'
p2167
S'257273006513061890A'
tp2168
g4
(g5
g6
NtRp2169
(dp2170
g9
S'A'
sg10
g2167
sg11
Nsg12
S'objective'
p2171
sg14
I17
sg15
g2168
sg16
S'257273006513061890'
p2172
sg18
I0
sbs(S'77088549'
p2173
S'263451293933260800B'
tp2174
g4
(g5
g6
NtRp2175
(dp2176
g9
S'A'
sg10
g2173
sg11
Nsg12
S'negative'
p2177
sg14
I2
sg15
g2174
sg16
S'263451293933260800'
p2178
sg18
I2
sbs(S'346235321'
p2179
S'248144864997421056C'
tp2180
g4
(g5
g6
NtRp2181
(dp2182
g9
S'A'
sg10
g2179
sg11
Nsg12
S'objective'
p2183
sg14
I18
sg15
g2180
sg16
S'248144864997421056'
p2184
sg18
I14
sbs(S'304395046'
p2185
S'103265197539590145B'
tp2186
g4
(g5
g6
NtRp2187
(dp2188
g9
S'A'
sg10
g2185
sg11
Nsg12
S'negative'
p2189
sg14
I1
sg15
g2186
sg16
S'103265197539590145'
p2190
sg18
I1
sbs(S'104504069'
p2191
S'222708587808555008C'
tp2192
g4
(g5
g6
NtRp2193
(dp2194
g9
S'A'
sg10
g2191
sg11
Nsg12
S'objective'
p2195
sg14
I18
sg15
g2192
sg16
S'222708587808555008'
p2196
sg18
I4
sbs(S'51755720'
p2197
S'103174922511192064B'
tp2198
g4
(g5
g6
NtRp2199
(dp2200
g9
S'A'
sg10
g2197
sg11
Nsg12
S'objective'
p2201
sg14
I15
sg15
g2198
sg16
S'103174922511192064'
p2202
sg18
I2
sbs(S'20645542'
p2203
S'261631092539392000B'
tp2204
g4
(g5
g6
NtRp2205
(dp2206
g9
S'A'
sg10
g2203
sg11
Nsg12
S'positive'
p2207
sg14
I8
sg15
g2204
sg16
S'261631092539392000'
p2208
sg18
I7
sbs(S'394763270'
p2209
S'263984722617712640A'
tp2210
g4
(g5
g6
NtRp2211
(dp2212
g9
S'A'
sg10
g2209
sg11
Nsg12
S'objective'
p2213
sg14
I14
sg15
g2210
sg16
S'263984722617712640'
p2214
sg18
I0
sbs(S'50909879'
p2215
S'264200442886623232D'
tp2216
g4
(g5
g6
NtRp2217
(dp2218
g9
S'A'
sg10
g2215
sg11
Nsg12
S'negative'
p2219
sg14
I7
sg15
g2216
sg16
S'264200442886623232'
p2220
sg18
I5
sbs(S'153307673'
p2221
S'103429907421466624D'
tp2222
g4
(g5
g6
NtRp2223
(dp2224
g9
S'A'
sg10
g2221
sg11
Nsg12
S'positive'
p2225
sg14
I19
sg15
g2222
sg16
S'103429907421466624'
p2226
sg18
I19
sbs(S'96849368'
p2227
S'105363020154273792A'
tp2228
g4
(g5
g6
NtRp2229
(dp2230
g9
S'A'
sg10
g2227
sg11
Nsg12
S'objective'
p2231
sg14
I23
sg15
g2228
sg16
S'105363020154273792'
p2232
sg18
I0
sbs(S'246428848'
p2233
S'104517341710262272B'
tp2234
g4
(g5
g6
NtRp2235
(dp2236
g9
S'A'
sg10
g2233
sg11
Nsg12
S'objective'
p2237
sg14
I5
sg15
g2234
sg16
S'104517341710262272'
p2238
sg18
I2
sbs(S'18684224'
p2239
S'103250430980665345B'
tp2240
g4
(g5
g6
NtRp2241
(dp2242
g9
S'A'
sg10
g2239
sg11
Nsg12
S'positive'
p2243
sg14
I2
sg15
g2240
sg16
S'103250430980665345'
p2244
sg18
I2
sbs(S'69896660'
p2245
S'101451079404892160A'
tp2246
g4
(g5
g6
NtRp2247
(dp2248
g9
S'A'
sg10
g2245
sg11
Nsg12
S'objective'
p2249
sg14
I5
sg15
g2246
sg16
S'101451079404892160'
p2250
sg18
I0
sbs(S'99260593'
p2251
S'259983669446455296B'
tp2252
g4
(g5
g6
NtRp2253
(dp2254
g9
S'A'
sg10
g2251
sg11
Nsg12
S'positive'
p2255
sg14
I5
sg15
g2252
sg16
S'259983669446455296'
p2256
sg18
I4
sbs(S'757089673'
p2257
S'241711277532119040D'
tp2258
g4
(g5
g6
NtRp2259
(dp2260
g9
S'A'
sg10
g2257
sg11
Nsg12
S'objective'
p2261
sg14
I13
sg15
g2258
sg16
S'241711277532119040'
p2262
sg18
I9
sbs(S'27673803'
p2263
S'118362498155028480B'
tp2264
g4
(g5
g6
NtRp2265
(dp2266
g9
S'A'
sg10
g2263
sg11
Nsg12
S'neutral'
p2267
sg14
I1
sg15
g2264
sg16
S'118362498155028480'
p2268
sg18
I1
sbs(S'259074027'
p2269
S'263258642151780352B'
tp2270
g4
(g5
g6
NtRp2271
(dp2272
g9
S'A'
sg10
g2269
sg11
Nsg12
S'negative'
p2273
sg14
I9
sg15
g2270
sg16
S'263258642151780352'
p2274
sg18
I9
sbs(S'62823680'
p2275
S'261572875306291200D'
tp2276
g4
(g5
g6
NtRp2277
(dp2278
g9
S'A'
sg10
g2275
sg11
Nsg12
S'objective'
p2279
sg14
I19
sg15
g2276
sg16
S'261572875306291200'
p2280
sg18
I13
sbs(S'132930248'
p2281
S'103233520188657664C'
tp2282
g4
(g5
g6
NtRp2283
(dp2284
g9
S'A'
sg10
g2281
sg11
Nsg12
S'objective'
p2285
sg14
I23
sg15
g2282
sg16
S'103233520188657664'
p2286
sg18
I4
sbs(S'263529559'
p2287
S'262788466226655232A'
tp2288
g4
(g5
g6
NtRp2289
(dp2290
g9
S'A'
sg10
g2287
sg11
Nsg12
S'positive'
p2291
sg14
I2
sg15
g2288
sg16
S'262788466226655232'
p2292
sg18
I0
sbs(S'288690722'
p2293
S'183833135430111232B'
tp2294
g4
(g5
g6
NtRp2295
(dp2296
g9
S'A'
sg10
g2293
sg11
Nsg12
S'positive'
p2297
sg14
I5
sg15
g2294
sg16
S'183833135430111232'
p2298
sg18
I5
sbs(S'417509923'
p2299
S'263366711196123137E'
tp2300
g4
(g5
g6
NtRp2301
(dp2302
g9
S'A'
sg10
g2299
sg11
Nsg12
S'objective'
p2303
sg14
I22
sg15
g2300
sg16
S'263366711196123137'
p2304
sg18
I20
sbs(S'69948216'
p2305
S'228698918727340032G'
tp2306
g4
(g5
g6
NtRp2307
(dp2308
g9
S'A'
sg10
g2305
sg11
Nsg12
S'objective'
p2309
sg14
I15
sg15
g2306
sg16
S'228698918727340032'
p2310
sg18
I10
sbs(S'177665211'
p2311
S'119268781557161984A'
tp2312
g4
(g5
g6
NtRp2313
(dp2314
g9
S'A'
sg10
g2311
sg11
Nsg12
S'objective'
p2315
sg14
I24
sg15
g2312
sg16
S'119268781557161984'
p2316
sg18
I0
sbs(S'63532465'
p2317
S'100665193335500800E'
tp2318
g4
(g5
g6
NtRp2319
(dp2320
g9
S'A'
sg10
g2317
sg11
Nsg12
S'objective'
p2321
sg14
I17
sg15
g2318
sg16
S'100665193335500800'
p2322
sg18
I15
sbs(S'393230101'
p2323
S'259740383368601600A'
tp2324
g4
(g5
g6
NtRp2325
(dp2326
g9
S'A'
sg10
g2323
sg11
Nsg12
S'objective'
p2327
sg14
I20
sg15
g2324
sg16
S'259740383368601600'
p2328
sg18
I0
sbs(S'38621292'
p2329
S'233410057478479874B'
tp2330
g4
(g5
g6
NtRp2331
(dp2332
g9
S'A'
sg10
g2329
sg11
Nsg12
S'positive'
p2333
sg14
I2
sg15
g2330
sg16
S'233410057478479874'
p2334
sg18
I2
sbs(S'290120812'
p2335
S'175147659059929089A'
tp2336
g4
(g5
g6
NtRp2337
(dp2338
g9
S'A'
sg10
g2335
sg11
Nsg12
S'objective'
p2339
sg14
I4
sg15
g2336
sg16
S'175147659059929089'
p2340
sg18
I0
sbs(S'153853944'
p2341
S'102251784126468096A'
tp2342
g4
(g5
g6
NtRp2343
(dp2344
g9
S'A'
sg10
g2341
sg11
Nsg12
S'objective'
p2345
sg14
I19
sg15
g2342
sg16
S'102251784126468096'
p2346
sg18
I0
sbs(S'851443645'
p2347
S'252108209513455616B'
tp2348
g4
(g5
g6
NtRp2349
(dp2350
g9
S'A'
sg10
g2347
sg11
Nsg12
S'positive'
p2351
sg14
I4
sg15
g2348
sg16
S'252108209513455616'
p2352
sg18
I4
sbs(S'25152395'
p2353
S'180732852973993984C'
tp2354
g4
(g5
g6
NtRp2355
(dp2356
g9
S'A'
sg10
g2353
sg11
Nsg12
S'objective'
p2357
sg14
I10
sg15
g2354
sg16
S'180732852973993984'
p2358
sg18
I5
sbs(S'152556346'
p2359
S'260051608686170112D'
tp2360
g4
(g5
g6
NtRp2361
(dp2362
g9
S'A'
sg10
g2359
sg11
Nsg12
S'positive'
p2363
sg14
I13
sg15
g2360
sg16
S'260051608686170112'
p2364
sg18
I13
sbs(S'42828974'
p2365
S'110195528733704192B'
tp2366
g4
(g5
g6
NtRp2367
(dp2368
g9
S'A'
sg10
g2365
sg11
Nsg12
S'negative'
p2369
sg14
I15
sg15
g2366
sg16
S'110195528733704192'
p2370
sg18
I13
sbs(S'753528871'
p2371
S'264089658097549312D'
tp2372
g4
(g5
g6
NtRp2373
(dp2374
g9
S'A'
sg10
g2371
sg11
Nsg12
S'positive'
p2375
sg14
I22
sg15
g2372
sg16
S'264089658097549312'
p2376
sg18
I22
sbs(S'367155425'
p2377
S'256827998165151744A'
tp2378
g4
(g5
g6
NtRp2379
(dp2380
g9
S'A'
sg10
g2377
sg11
Nsg12
S'objective'
p2381
sg14
I6
sg15
g2378
sg16
S'256827998165151744'
p2382
sg18
I0
sbs(S'99638306'
p2383
S'254888163691073537A'
tp2384
g4
(g5
g6
NtRp2385
(dp2386
g9
S'A'
sg10
g2383
sg11
Nsg12
S'objective'
p2387
sg14
I15
sg15
g2384
sg16
S'254888163691073537'
p2388
sg18
I0
sbs(S'54395259'
p2389
S'100461938533863424A'
tp2390
g4
(g5
g6
NtRp2391
(dp2392
g9
S'A'
sg10
g2389
sg11
Nsg12
S'objective'
p2393
sg14
I0
sg15
g2390
sg16
S'100461938533863424'
p2394
sg18
I0
sbs(S'246222514'
p2395
S'107189808840978432B'
tp2396
g4
(g5
g6
NtRp2397
(dp2398
g9
S'A'
sg10
g2395
sg11
Nsg12
S'positive'
p2399
sg14
I11
sg15
g2396
sg16
S'107189808840978432'
p2400
sg18
I11
sbs(S'246428848'
p2401
S'104517341710262272D'
tp2402
g4
(g5
g6
NtRp2403
(dp2404
g9
S'A'
sg10
g2401
sg11
Nsg12
S'objective'
p2405
sg14
I15
sg15
g2402
sg16
S'104517341710262272'
p2406
sg18
I8
sbs(S'349109660'
p2407
S'101454064570732545A'
tp2408
g4
(g5
g6
NtRp2409
(dp2410
g9
S'A'
sg10
g2407
sg11
Nsg12
S'objective'
p2411
sg14
I1
sg15
g2408
sg16
S'101454064570732545'
p2412
sg18
I0
sbs(S'342549290'
p2413
S'252498062243680256C'
tp2414
g4
(g5
g6
NtRp2415
(dp2416
g9
S'A'
sg10
g2413
sg11
Nsg12
S'objective'
p2417
sg14
I20
sg15
g2414
sg16
S'252498062243680256'
p2418
sg18
I9
sbs(S'58830533'
p2419
S'264003998720348160B'
tp2420
g4
(g5
g6
NtRp2421
(dp2422
g9
S'A'
sg10
g2419
sg11
Nsg12
S'positive'
p2423
sg14
I10
sg15
g2420
sg16
S'264003998720348160'
p2424
sg18
I9
sbs(S'162904928'
p2425
S'100395453350297600E'
tp2426
g4
(g5
g6
NtRp2427
(dp2428
g9
S'A'
sg10
g2425
sg11
Nsg12
S'objective'
p2429
sg14
I16
sg15
g2426
sg16
S'100395453350297600'
p2430
sg18
I8
sbs(S'15296897'
p2431
S'245142088851808256A'
tp2432
g4
(g5
g6
NtRp2433
(dp2434
g9
S'A'
sg10
g2431
sg11
Nsg12
S'objective'
p2435
sg14
I19
sg15
g2432
sg16
S'245142088851808256'
p2436
sg18
I0
sbs(S'29619966'
p2437
S'207610356141531136A'
tp2438
g4
(g5
g6
NtRp2439
(dp2440
g9
S'A'
sg10
g2437
sg11
Nsg12
S'objective'
p2441
sg14
I14
sg15
g2438
sg16
S'207610356141531136'
p2442
sg18
I0
sbs(S'43598498'
p2443
S'118152030320734210B'
tp2444
g4
(g5
g6
NtRp2445
(dp2446
g9
S'A'
sg10
g2443
sg11
Nsg12
S'negative'
p2447
sg14
I7
sg15
g2444
sg16
S'118152030320734210'
p2448
sg18
I6
sbs(S'212483510'
p2449
S'111538042954723328C'
tp2450
g4
(g5
g6
NtRp2451
(dp2452
g9
S'A'
sg10
g2449
sg11
Nsg12
S'objective'
p2453
sg14
I13
sg15
g2450
sg16
S'111538042954723328'
p2454
sg18
I13
sbs(S'606274339'
p2455
S'251006340598747136A'
tp2456
g4
(g5
g6
NtRp2457
(dp2458
g9
S'A'
sg10
g2455
sg11
Nsg12
S'objective'
p2459
sg14
I22
sg15
g2456
sg16
S'251006340598747136'
p2460
sg18
I0
sbs(S'183682298'
p2461
S'261046021050736640A'
tp2462
g4
(g5
g6
NtRp2463
(dp2464
g9
S'A'
sg10
g2461
sg11
Nsg12
S'objective'
p2465
sg14
I22
sg15
g2462
sg16
S'261046021050736640'
p2466
sg18
I0
sbs(S'324748107'
p2467
S'100517814976266242C'
tp2468
g4
(g5
g6
NtRp2469
(dp2470
g9
S'A'
sg10
g2467
sg11
Nsg12
S'objective'
p2471
sg14
I15
sg15
g2468
sg16
S'100517814976266242'
p2472
sg18
I4
sbs(S'35990273'
p2473
S'247031555493621762D'
tp2474
g4
(g5
g6
NtRp2475
(dp2476
g9
S'A'
sg10
g2473
sg11
Nsg12
S'positive'
p2477
sg14
I20
sg15
g2474
sg16
S'247031555493621762'
p2478
sg18
I20
sbs(S'54395259'
p2479
S'100461938533863424E'
tp2480
g4
(g5
g6
NtRp2481
(dp2482
g9
S'A'
sg10
g2479
sg11
Nsg12
S'objective'
p2483
sg14
I19
sg15
g2480
sg16
S'100461938533863424'
p2484
sg18
I14
sbs(S'21925335'
p2485
S'220220804338679809A'
tp2486
g4
(g5
g6
NtRp2487
(dp2488
g9
S'A'
sg10
g2485
sg11
Nsg12
S'objective'
p2489
sg14
I9
sg15
g2486
sg16
S'220220804338679809'
p2490
sg18
I0
sbs(S'29635577'
p2491
S'176884776194686976A'
tp2492
g4
(g5
g6
NtRp2493
(dp2494
g9
S'A'
sg10
g2491
sg11
Nsg12
S'objective'
p2495
sg14
I12
sg15
g2492
sg16
S'176884776194686976'
p2496
sg18
I0
sbs(S'320428296'
p2497
S'253716160393138177C'
tp2498
g4
(g5
g6
NtRp2499
(dp2500
g9
S'A'
sg10
g2497
sg11
Nsg12
S'objective'
p2501
sg14
I16
sg15
g2498
sg16
S'253716160393138177'
p2502
sg18
I15
sbs(S'227179643'
p2503
S'118167201797775360B'
tp2504
g4
(g5
g6
NtRp2505
(dp2506
g9
S'A'
sg10
g2503
sg11
Nsg12
S'positive'
p2507
sg14
I9
sg15
g2504
sg16
S'118167201797775360'
p2508
sg18
I9
sbs(S'69508768'
p2509
S'101814905275039744B'
tp2510
g4
(g5
g6
NtRp2511
(dp2512
g9
S'A'
sg10
g2509
sg11
Nsg12
S'negative'
p2513
sg14
I21
sg15
g2510
sg16
S'101814905275039744'
p2514
sg18
I20
sbs(S'20756067'
p2515
S'259374136181288960E'
tp2516
g4
(g5
g6
NtRp2517
(dp2518
g9
S'A'
sg10
g2515
sg11
Nsg12
S'objective'
p2519
sg14
I24
sg15
g2516
sg16
S'259374136181288960'
p2520
sg18
I18
sbs(S'233066756'
p2521
S'104349784642560000A'
tp2522
g4
(g5
g6
NtRp2523
(dp2524
g9
S'A'
sg10
g2521
sg11
Nsg12
S'objective'
p2525
sg14
I1
sg15
g2522
sg16
S'104349784642560000'
p2526
sg18
I0
sbs(S'212483510'
p2527
S'111538042954723328B'
tp2528
g4
(g5
g6
NtRp2529
(dp2530
g9
S'A'
sg10
g2527
sg11
Nsg12
S'positive'
p2531
sg14
I12
sg15
g2528
sg16
S'111538042954723328'
p2532
sg18
I11
sbs(S'324748107'
p2533
S'100517814976266242A'
tp2534
g4
(g5
g6
NtRp2535
(dp2536
g9
S'A'
sg10
g2533
sg11
Nsg12
S'objective'
p2537
sg14
I0
sg15
g2534
sg16
S'100517814976266242'
p2538
sg18
I0
sbs(S'186349415'
p2539
S'100228151422099456C'
tp2540
g4
(g5
g6
NtRp2541
(dp2542
g9
S'A'
sg10
g2539
sg11
Nsg12
S'objective'
p2543
sg14
I10
sg15
g2540
sg16
S'100228151422099456'
p2544
sg18
I5
sbs(S'181241054'
p2545
S'257683804074958848C'
tp2546
g4
(g5
g6
NtRp2547
(dp2548
g9
S'A'
sg10
g2545
sg11
Nsg12
S'objective'
p2549
sg14
I24
sg15
g2546
sg16
S'257683804074958848'
p2550
sg18
I24
sbs(S'116628196'
p2551
S'203977468904878081D'
tp2552
g4
(g5
g6
NtRp2553
(dp2554
g9
S'A'
sg10
g2551
sg11
Nsg12
S'positive'
p2555
sg14
I10
sg15
g2552
sg16
S'203977468904878081'
p2556
sg18
I10
sbs(S'148181135'
p2557
S'104216608972607488C'
tp2558
g4
(g5
g6
NtRp2559
(dp2560
g9
S'A'
sg10
g2557
sg11
Nsg12
S'objective'
p2561
sg14
I18
sg15
g2558
sg16
S'104216608972607488'
p2562
sg18
I6
sbs(S'186349415'
p2563
S'100228151422099456A'
tp2564
g4
(g5
g6
NtRp2565
(dp2566
g9
S'A'
sg10
g2563
sg11
Nsg12
S'objective'
p2567
sg14
I3
sg15
g2564
sg16
S'100228151422099456'
p2568
sg18
I0
sbs(S'866709174'
p2569
S'262501520535339008B'
tp2570
g4
(g5
g6
NtRp2571
(dp2572
g9
S'A'
sg10
g2569
sg11
Nsg12
S'positive'
p2573
sg14
I5
sg15
g2570
sg16
S'262501520535339008'
p2574
sg18
I4
sbs(S'556841842'
p2575
S'264189676666093568B'
tp2576
g4
(g5
g6
NtRp2577
(dp2578
g9
S'A'
sg10
g2575
sg11
Nsg12
S'negative'
p2579
sg14
I4
sg15
g2576
sg16
S'264189676666093568'
p2580
sg18
I2
sbs(S'212483510'
p2581
S'111538042954723328D'
tp2582
g4
(g5
g6
NtRp2583
(dp2584
g9
S'A'
sg10
g2581
sg11
Nsg12
S'negative'
p2585
sg14
I15
sg15
g2582
sg16
S'111538042954723328'
p2586
sg18
I14
sbs(S'67071435'
p2587
S'101663482537181184D'
tp2588
g4
(g5
g6
NtRp2589
(dp2590
g9
S'A'
sg10
g2587
sg11
Nsg12
S'negative'
p2591
sg14
I10
sg15
g2588
sg16
S'101663482537181184'
p2592
sg18
I10
sbs(S'112595760'
p2593
S'108034287944744960E'
tp2594
g4
(g5
g6
NtRp2595
(dp2596
g9
S'A'
sg10
g2593
sg11
Nsg12
S'objective'
p2597
sg14
I27
sg15
g2594
sg16
S'108034287944744960'
p2598
sg18
I15
sbs(S'231663617'
p2599
S'100198972324454400B'
tp2600
g4
(g5
g6
NtRp2601
(dp2602
g9
S'A'
sg10
g2599
sg11
Nsg12
S'negative'
p2603
sg14
I5
sg15
g2600
sg16
S'100198972324454400'
p2604
sg18
I3
sbs(S'44434255'
p2605
S'245062966679064576A'
tp2606
g4
(g5
g6
NtRp2607
(dp2608
g9
S'A'
sg10
g2605
sg11
Nsg12
S'objective'
p2609
sg14
I12
sg15
g2606
sg16
S'245062966679064576'
p2610
sg18
I0
sbs(S'329317762'
p2611
S'118152301532823552E'
tp2612
g4
(g5
g6
NtRp2613
(dp2614
g9
S'A'
sg10
g2611
sg11
Nsg12
S'objective'
p2615
sg14
I15
sg15
g2612
sg16
S'118152301532823552'
p2616
sg18
I14
sbs(S'353946567'
p2617
S'108201763772960769B'
tp2618
g4
(g5
g6
NtRp2619
(dp2620
g9
S'A'
sg10
g2617
sg11
Nsg12
S'positive'
p2621
sg14
I15
sg15
g2618
sg16
S'108201763772960769'
p2622
sg18
I12
sbs(S'143100038'
p2623
S'100290591446925312A'
tp2624
g4
(g5
g6
NtRp2625
(dp2626
g9
S'A'
sg10
g2623
sg11
Nsg12
S'objective'
p2627
sg14
I18
sg15
g2624
sg16
S'100290591446925312'
p2628
sg18
I0
sbs(S'54395259'
p2629
S'100461938533863424F'
tp2630
g4
(g5
g6
NtRp2631
(dp2632
g9
S'A'
sg10
g2629
sg11
Nsg12
S'positive'
p2633
sg14
I21
sg15
g2630
sg16
S'100461938533863424'
p2634
sg18
I20
sbs(S'577067868'
p2635
S'263533649285218304C'
tp2636
g4
(g5
g6
NtRp2637
(dp2638
g9
S'A'
sg10
g2635
sg11
Nsg12
S'objective'
p2639
sg14
I20
sg15
g2636
sg16
S'263533649285218304'
p2640
sg18
I3
sbs(S'900232124'
p2641
S'260805481994543104A'
tp2642
g4
(g5
g6
NtRp2643
(dp2644
g9
S'A'
sg10
g2641
sg11
Nsg12
S'objective'
p2645
sg14
I24
sg15
g2642
sg16
S'260805481994543104'
p2646
sg18
I0
sbs(S'287477398'
p2647
S'100185002276425728C'
tp2648
g4
(g5
g6
NtRp2649
(dp2650
g9
S'A'
sg10
g2647
sg11
Nsg12
S'objective'
p2651
sg14
I21
sg15
g2648
sg16
S'100185002276425728'
p2652
sg18
I10
sbs(S'281258276'
p2653
S'100348025205030913C'
tp2654
g4
(g5
g6
NtRp2655
(dp2656
g9
S'A'
sg10
g2653
sg11
Nsg12
S'objective'
p2657
sg14
I10
sg15
g2654
sg16
S'100348025205030913'
p2658
sg18
I5
sbs(S'368265063'
p2659
S'254579556311265280F'
tp2660
g4
(g5
g6
NtRp2661
(dp2662
g9
S'A'
sg10
g2659
sg11
Nsg12
S'positive'
p2663
sg14
I19
sg15
g2660
sg16
S'254579556311265280'
p2664
sg18
I19
sbs(S'126024490'
p2665
S'248002296993177601A'
tp2666
g4
(g5
g6
NtRp2667
(dp2668
g9
S'A'
sg10
g2665
sg11
Nsg12
S'objective'
p2669
sg14
I0
sg15
g2666
sg16
S'248002296993177601'
p2670
sg18
I0
sbs(S'337700729'
p2671
S'248401241196085248A'
tp2672
g4
(g5
g6
NtRp2673
(dp2674
g9
S'A'
sg10
g2671
sg11
Nsg12
S'objective'
p2675
sg14
I2
sg15
g2672
sg16
S'248401241196085248'
p2676
sg18
I0
sbs(S'178537084'
p2677
S'100651450576801792A'
tp2678
g4
(g5
g6
NtRp2679
(dp2680
g9
S'A'
sg10
g2677
sg11
Nsg12
S'positive'
p2681
sg14
I3
sg15
g2678
sg16
S'100651450576801792'
p2682
sg18
I0
sbs(S'135616590'
p2683
S'260896179838128129C'
tp2684
g4
(g5
g6
NtRp2685
(dp2686
g9
S'A'
sg10
g2683
sg11
Nsg12
S'objective'
p2687
sg14
I23
sg15
g2684
sg16
S'260896179838128129'
p2688
sg18
I11
sbs(S'838165111'
p2689
S'264112073238257664B'
tp2690
g4
(g5
g6
NtRp2691
(dp2692
g9
S'A'
sg10
g2689
sg11
Nsg12
S'positive'
p2693
sg14
I6
sg15
g2690
sg16
S'264112073238257664'
p2694
sg18
I6
sbs(S'332559560'
p2695
S'103232284173406208B'
tp2696
g4
(g5
g6
NtRp2697
(dp2698
g9
S'A'
sg10
g2695
sg11
Nsg12
S'positive'
p2699
sg14
I4
sg15
g2696
sg16
S'103232284173406208'
p2700
sg18
I4
sbs(S'167450610'
p2701
S'101269868329963520B'
tp2702
g4
(g5
g6
NtRp2703
(dp2704
g9
S'A'
sg10
g2701
sg11
Nsg12
S'positive'
p2705
sg14
I13
sg15
g2702
sg16
S'101269868329963520'
p2706
sg18
I12
sbs(S'346400200'
p2707
S'264204445036974081C'
tp2708
g4
(g5
g6
NtRp2709
(dp2710
g9
S'A'
sg10
g2707
sg11
Nsg12
S'objective'
p2711
sg14
I17
sg15
g2708
sg16
S'264204445036974081'
p2712
sg18
I13
sbs(S'67036119'
p2713
S'104682745376161792B'
tp2714
g4
(g5
g6
NtRp2715
(dp2716
g9
S'A'
sg10
g2713
sg11
Nsg12
S'objective'
p2717
sg14
I1
sg15
g2714
sg16
S'104682745376161792'
p2718
sg18
I1
sbs(S'267357551'
p2719
S'260832035642413056D'
tp2720
g4
(g5
g6
NtRp2721
(dp2722
g9
S'A'
sg10
g2719
sg11
Nsg12
S'positive'
p2723
sg14
I20
sg15
g2720
sg16
S'260832035642413056'
p2724
sg18
I19
sbs(S'14824156'
p2725
S'103220092308946944A'
tp2726
g4
(g5
g6
NtRp2727
(dp2728
g9
S'A'
sg10
g2725
sg11
Nsg12
S'objective'
p2729
sg14
I20
sg15
g2726
sg16
S'103220092308946944'
p2730
sg18
I0
sbs(S'135263715'
p2731
S'213573869846544385C'
tp2732
g4
(g5
g6
NtRp2733
(dp2734
g9
S'A'
sg10
g2731
sg11
Nsg12
S'objective'
p2735
sg14
I26
sg15
g2732
sg16
S'213573869846544385'
p2736
sg18
I21
sbs(S'147899715'
p2737
S'263804057913815040C'
tp2738
g4
(g5
g6
NtRp2739
(dp2740
g9
S'A'
sg10
g2737
sg11
Nsg12
S'objective'
p2741
sg14
I18
sg15
g2738
sg16
S'263804057913815040'
p2742
sg18
I5
sbs(S'733817984'
p2743
S'251727127060303873F'
tp2744
g4
(g5
g6
NtRp2745
(dp2746
g9
S'A'
sg10
g2743
sg11
Nsg12
S'negative'
p2747
sg14
I22
sg15
g2744
sg16
S'251727127060303873'
p2748
sg18
I22
sbs(S'17491872'
p2749
S'104651390776918016A'
tp2750
g4
(g5
g6
NtRp2751
(dp2752
g9
S'A'
sg10
g2749
sg11
Nsg12
S'positive'
p2753
sg14
I3
sg15
g2750
sg16
S'104651390776918016'
p2754
sg18
I0
sbs(S'21137575'
p2755
S'264264628408832000C'
tp2756
g4
(g5
g6
NtRp2757
(dp2758
g9
S'A'
sg10
g2755
sg11
Nsg12
S'objective'
p2759
sg14
I26
sg15
g2756
sg16
S'264264628408832000'
p2760
sg18
I14
sbs(S'296502129'
p2761
S'103263897712201731A'
tp2762
g4
(g5
g6
NtRp2763
(dp2764
g9
S'A'
sg10
g2761
sg11
Nsg12
S'objective'
p2765
sg14
I5
sg15
g2762
sg16
S'103263897712201731'
p2766
sg18
I0
sbs(S'118384493'
p2767
S'104515631365365761A'
tp2768
g4
(g5
g6
NtRp2769
(dp2770
g9
S'A'
sg10
g2767
sg11
Nsg12
S'positive'
p2771
sg14
I1
sg15
g2768
sg16
S'104515631365365761'
p2772
sg18
I0
sbs(S'464690043'
p2773
S'253560559868456960A'
tp2774
g4
(g5
g6
NtRp2775
(dp2776
g9
S'A'
sg10
g2773
sg11
Nsg12
S'objective'
p2777
sg14
I9
sg15
g2774
sg16
S'253560559868456960'
p2778
sg18
I0
sbs(S'35990273'
p2779
S'247031555493621762C'
tp2780
g4
(g5
g6
NtRp2781
(dp2782
g9
S'A'
sg10
g2779
sg11
Nsg12
S'objective'
p2783
sg14
I19
sg15
g2780
sg16
S'247031555493621762'
p2784
sg18
I19
sbs(S'163998890'
p2785
S'259048276672782336A'
tp2786
g4
(g5
g6
NtRp2787
(dp2788
g9
S'A'
sg10
g2785
sg11
Nsg12
S'objective'
p2789
sg14
I9
sg15
g2786
sg16
S'259048276672782336'
p2790
sg18
I0
sbs(S'252626004'
p2791
S'104214530766274560A'
tp2792
g4
(g5
g6
NtRp2793
(dp2794
g9
S'A'
sg10
g2791
sg11
Nsg12
S'objective'
p2795
sg14
I19
sg15
g2792
sg16
S'104214530766274560'
p2796
sg18
I0
sbs(S'16397103'
p2797
S'101438889968939008B'
tp2798
g4
(g5
g6
NtRp2799
(dp2800
g9
S'A'
sg10
g2797
sg11
Nsg12
S'negative'
p2801
sg14
I11
sg15
g2798
sg16
S'101438889968939008'
p2802
sg18
I10
sbs(S'118384493'
p2803
S'104515631365365761D'
tp2804
g4
(g5
g6
NtRp2805
(dp2806
g9
S'A'
sg10
g2803
sg11
Nsg12
S'objective'
p2807
sg14
I10
sg15
g2804
sg16
S'104515631365365761'
p2808
sg18
I10
sbs(S'329317762'
p2809
S'118152301532823552B'
tp2810
g4
(g5
g6
NtRp2811
(dp2812
g9
S'A'
sg10
g2809
sg11
Nsg12
S'negative'
p2813
sg14
I3
sg15
g2810
sg16
S'118152301532823552'
p2814
sg18
I3
sbs(S'112595760'
p2815
S'108034287944744960B'
tp2816
g4
(g5
g6
NtRp2817
(dp2818
g9
S'A'
sg10
g2815
sg11
Nsg12
S'positive'
p2819
sg14
I7
sg15
g2816
sg16
S'108034287944744960'
p2820
sg18
I5
sbs(S'191155404'
p2821
S'103053326127603712A'
tp2822
g4
(g5
g6
NtRp2823
(dp2824
g9
S'A'
sg10
g2821
sg11
Nsg12
S'positive'
p2825
sg14
I1
sg15
g2822
sg16
S'103053326127603712'
p2826
sg18
I0
sbs(S'27673803'
p2827
S'118362498155028480F'
tp2828
g4
(g5
g6
NtRp2829
(dp2830
g9
S'A'
sg10
g2827
sg11
Nsg12
S'positive'
p2831
sg14
I13
sg15
g2828
sg16
S'118362498155028480'
p2832
sg18
I13
sbs(S'154969629'
p2833
S'100381935729262592A'
tp2834
g4
(g5
g6
NtRp2835
(dp2836
g9
S'A'
sg10
g2833
sg11
Nsg12
S'objective'
p2837
sg14
I0
sg15
g2834
sg16
S'100381935729262592'
p2838
sg18
I0
sbs(S'50025826'
p2839
S'101451016377085952B'
tp2840
g4
(g5
g6
NtRp2841
(dp2842
g9
S'A'
sg10
g2839
sg11
Nsg12
S'negative'
p2843
sg14
I11
sg15
g2840
sg16
S'101451016377085952'
p2844
sg18
I9
sbs(S'170938747'
p2845
S'263816911874314240C'
tp2846
g4
(g5
g6
NtRp2847
(dp2848
g9
S'A'
sg10
g2845
sg11
Nsg12
S'objective'
p2849
sg14
I10
sg15
g2846
sg16
S'263816911874314240'
p2850
sg18
I4
sbs(S'293142083'
p2851
S'102991944950628352B'
tp2852
g4
(g5
g6
NtRp2853
(dp2854
g9
S'A'
sg10
g2851
sg11
Nsg12
S'positive'
p2855
sg14
I6
sg15
g2852
sg16
S'102991944950628352'
p2856
sg18
I5
sbs(S'281258276'
p2857
S'100348025205030913D'
tp2858
g4
(g5
g6
NtRp2859
(dp2860
g9
S'A'
sg10
g2857
sg11
Nsg12
S'positive'
p2861
sg14
I12
sg15
g2858
sg16
S'100348025205030913'
p2862
sg18
I11
sbs(S'347915191'
p2863
S'100274052534501376A'
tp2864
g4
(g5
g6
NtRp2865
(dp2866
g9
S'A'
sg10
g2863
sg11
Nsg12
S'objective'
p2867
sg14
I0
sg15
g2864
sg16
S'100274052534501376'
p2868
sg18
I0
sbs(S'253992381'
p2869
S'243311668459868160A'
tp2870
g4
(g5
g6
NtRp2871
(dp2872
g9
S'A'
sg10
g2869
sg11
Nsg12
S'objective'
p2873
sg14
I23
sg15
g2870
sg16
S'243311668459868160'
p2874
sg18
I0
sbs(S'75459354'
p2875
S'264086181954859008B'
tp2876
g4
(g5
g6
NtRp2877
(dp2878
g9
S'A'
sg10
g2875
sg11
Nsg12
S'positive'
p2879
sg14
I4
sg15
g2876
sg16
S'264086181954859008'
p2880
sg18
I1
sbs(S'376259452'
p2881
S'260576874567176192A'
tp2882
g4
(g5
g6
NtRp2883
(dp2884
g9
S'A'
sg10
g2881
sg11
Nsg12
S'objective'
p2885
sg14
I15
sg15
g2882
sg16
S'260576874567176192'
p2886
sg18
I0
sbs(S'911747616'
p2887
S'264070712468320256A'
tp2888
g4
(g5
g6
NtRp2889
(dp2890
g9
S'A'
sg10
g2887
sg11
Nsg12
S'objective'
p2891
sg14
I2
sg15
g2888
sg16
S'264070712468320256'
p2892
sg18
I0
sbs(S'332559560'
p2893
S'103232284173406208A'
tp2894
g4
(g5
g6
NtRp2895
(dp2896
g9
S'A'
sg10
g2893
sg11
Nsg12
S'objective'
p2897
sg14
I3
sg15
g2894
sg16
S'103232284173406208'
p2898
sg18
I0
sbs(S'612415338'
p2899
S'263489626793185280B'
tp2900
g4
(g5
g6
NtRp2901
(dp2902
g9
S'A'
sg10
g2899
sg11
Nsg12
S'positive'
p2903
sg14
I10
sg15
g2900
sg16
S'263489626793185280'
p2904
sg18
I10
sbs(S'248839886'
p2905
S'262522947984572416C'
tp2906
g4
(g5
g6
NtRp2907
(dp2908
g9
S'A'
sg10
g2905
sg11
Nsg12
S'objective'
p2909
sg14
I12
sg15
g2906
sg16
S'262522947984572416'
p2910
sg18
I4
sbs(S'276816155'
p2911
S'111054768922832896B'
tp2912
g4
(g5
g6
NtRp2913
(dp2914
g9
S'A'
sg10
g2911
sg11
Nsg12
S'positive'
p2915
sg14
I2
sg15
g2912
sg16
S'111054768922832896'
p2916
sg18
I1
sbs(S'68750781'
p2917
S'194202072520990720A'
tp2918
g4
(g5
g6
NtRp2919
(dp2920
g9
S'A'
sg10
g2917
sg11
Nsg12
S'objective'
p2921
sg14
I0
sg15
g2918
sg16
S'194202072520990720'
p2922
sg18
I0
sbs(S'209682819'
p2923
S'263640792415997953B'
tp2924
g4
(g5
g6
NtRp2925
(dp2926
g9
S'A'
sg10
g2923
sg11
Nsg12
S'positive'
p2927
sg14
I21
sg15
g2924
sg16
S'263640792415997953'
p2928
sg18
I20
sbs(S'62417515'
p2929
S'261119659175206912B'
tp2930
g4
(g5
g6
NtRp2931
(dp2932
g9
S'A'
sg10
g2929
sg11
Nsg12
S'negative'
p2933
sg14
I1
sg15
g2930
sg16
S'261119659175206912'
p2934
sg18
I1
sbs(S'373022265'
p2935
S'263986400012161024A'
tp2936
g4
(g5
g6
NtRp2937
(dp2938
g9
S'A'
sg10
g2935
sg11
Nsg12
S'objective'
p2939
sg14
I12
sg15
g2936
sg16
S'263986400012161024'
p2940
sg18
I0
sbs(S'168793226'
p2941
S'104576641904279552D'
tp2942
g4
(g5
g6
NtRp2943
(dp2944
g9
S'A'
sg10
g2941
sg11
Nsg12
S'objective'
p2945
sg14
I13
sg15
g2942
sg16
S'104576641904279552'
p2946
sg18
I4
sbs(S'293475378'
p2947
S'222564506885308416A'
tp2948
g4
(g5
g6
NtRp2949
(dp2950
g9
S'A'
sg10
g2947
sg11
Nsg12
S'objective'
p2951
sg14
I20
sg15
g2948
sg16
S'222564506885308416'
p2952
sg18
I0
sbs(S'54395259'
p2953
S'100461938533863424G'
tp2954
g4
(g5
g6
NtRp2955
(dp2956
g9
S'A'
sg10
g2953
sg11
Nsg12
S'objective'
p2957
sg14
I23
sg15
g2954
sg16
S'100461938533863424'
p2958
sg18
I22
sbs(S'345548182'
p2959
S'216098777235329024B'
tp2960
g4
(g5
g6
NtRp2961
(dp2962
g9
S'A'
sg10
g2959
sg11
Nsg12
S'negative'
p2963
sg14
I5
sg15
g2960
sg16
S'216098777235329024'
p2964
sg18
I4
sbs(S'583884742'
p2965
S'264057505871695872A'
tp2966
g4
(g5
g6
NtRp2967
(dp2968
g9
S'A'
sg10
g2965
sg11
Nsg12
S'objective'
p2969
sg14
I4
sg15
g2966
sg16
S'264057505871695872'
p2970
sg18
I0
sbs(S'733817984'
p2971
S'251727127060303873A'
tp2972
g4
(g5
g6
NtRp2973
(dp2974
g9
S'A'
sg10
g2971
sg11
Nsg12
S'objective'
p2975
sg14
I14
sg15
g2972
sg16
S'251727127060303873'
p2976
sg18
I0
sbs(S'342501741'
p2977
S'103142957296795648C'
tp2978
g4
(g5
g6
NtRp2979
(dp2980
g9
S'A'
sg10
g2977
sg11
Nsg12
S'objective'
p2981
sg14
I4
sg15
g2978
sg16
S'103142957296795648'
p2982
sg18
I2
sbs(S'400051029'
p2983
S'259655323122556929B'
tp2984
g4
(g5
g6
NtRp2985
(dp2986
g9
S'A'
sg10
g2983
sg11
Nsg12
S'negative'
p2987
sg14
I17
sg15
g2984
sg16
S'259655323122556929'
p2988
sg18
I17
sbs(S'838165111'
p2989
S'264112073238257664A'
tp2990
g4
(g5
g6
NtRp2991
(dp2992
g9
S'A'
sg10
g2989
sg11
Nsg12
S'objective'
p2993
sg14
I5
sg15
g2990
sg16
S'264112073238257664'
p2994
sg18
I0
sbs(S'41785156'
p2995
S'100320206026579968A'
tp2996
g4
(g5
g6
NtRp2997
(dp2998
g9
S'A'
sg10
g2995
sg11
Nsg12
S'objective'
p2999
sg14
I16
sg15
g2996
sg16
S'100320206026579968'
p3000
sg18
I0
sbs(S'217611229'
p3001
S'102885406122590208B'
tp3002
g4
(g5
g6
NtRp3003
(dp3004
g9
S'A'
sg10
g3001
sg11
Nsg12
S'neutral'
p3005
sg14
I6
sg15
g3002
sg16
S'102885406122590208'
p3006
sg18
I5
sbs(S'853095716'
p3007
S'264092734116220928A'
tp3008
g4
(g5
g6
NtRp3009
(dp3010
g9
S'A'
sg10
g3007
sg11
Nsg12
S'objective'
p3011
sg14
I20
sg15
g3008
sg16
S'264092734116220928'
p3012
sg18
I0
sbs(S'33586366'
p3013
S'260105138251890688A'
tp3014
g4
(g5
g6
NtRp3015
(dp3016
g9
S'A'
sg10
g3013
sg11
Nsg12
S'objective'
p3017
sg14
I1
sg15
g3014
sg16
S'260105138251890688'
p3018
sg18
I0
sbs(S'208816833'
p3019
S'101058853269016577C'
tp3020
g4
(g5
g6
NtRp3021
(dp3022
g9
S'A'
sg10
g3019
sg11
Nsg12
S'objective'
p3023
sg14
I24
sg15
g3020
sg16
S'101058853269016577'
p3024
sg18
I23
sbs(S'103998818'
p3025
S'227832288061317121C'
tp3026
g4
(g5
g6
NtRp3027
(dp3028
g9
S'A'
sg10
g3025
sg11
Nsg12
S'objective'
p3029
sg14
I21
sg15
g3026
sg16
S'227832288061317121'
p3030
sg18
I11
sbs(S'322342303'
p3031
S'101828209850580993A'
tp3032
g4
(g5
g6
NtRp3033
(dp3034
g9
S'A'
sg10
g3031
sg11
Nsg12
S'objective'
p3035
sg14
I4
sg15
g3032
sg16
S'101828209850580993'
p3036
sg18
I0
sbs(S'29518051'
p3037
S'246859125353488384C'
tp3038
g4
(g5
g6
NtRp3039
(dp3040
g9
S'A'
sg10
g3037
sg11
Nsg12
S'objective'
p3041
sg14
I19
sg15
g3038
sg16
S'246859125353488384'
p3042
sg18
I3
sbs(S'429269903'
p3043
S'264101009100513280C'
tp3044
g4
(g5
g6
NtRp3045
(dp3046
g9
S'A'
sg10
g3043
sg11
Nsg12
S'objective'
p3047
sg14
I19
sg15
g3044
sg16
S'264101009100513280'
p3048
sg18
I10
sbs(S'14918147'
p3049
S'101450572363857921B'
tp3050
g4
(g5
g6
NtRp3051
(dp3052
g9
S'A'
sg10
g3049
sg11
Nsg12
S'positive'
p3053
sg14
I3
sg15
g3050
sg16
S'101450572363857921'
p3054
sg18
I3
sbs(S'762638042'
p3055
S'264090452284821504D'
tp3056
g4
(g5
g6
NtRp3057
(dp3058
g9
S'A'
sg10
g3055
sg11
Nsg12
S'positive'
p3059
sg14
I15
sg15
g3056
sg16
S'264090452284821504'
p3060
sg18
I15
sbs(S'19961694'
p3061
S'259612493649948673A'
tp3062
g4
(g5
g6
NtRp3063
(dp3064
g9
S'A'
sg10
g3061
sg11
Nsg12
S'objective'
p3065
sg14
I3
sg15
g3062
sg16
S'259612493649948673'
p3066
sg18
I0
sbs(S'3015401'
p3067
S'100397126370078721E'
tp3068
g4
(g5
g6
NtRp3069
(dp3070
g9
S'A'
sg10
g3067
sg11
Nsg12
S'objective'
p3071
sg14
I17
sg15
g3068
sg16
S'100397126370078721'
p3072
sg18
I12
sbs(S'290249353'
p3073
S'104639613175463936A'
tp3074
g4
(g5
g6
NtRp3075
(dp3076
g9
S'A'
sg10
g3073
sg11
Nsg12
S'objective'
p3077
sg14
I12
sg15
g3074
sg16
S'104639613175463936'
p3078
sg18
I0
sbs(S'98627870'
p3079
S'103217677996277760B'
tp3080
g4
(g5
g6
NtRp3081
(dp3082
g9
S'A'
sg10
g3079
sg11
Nsg12
S'positive'
p3083
sg14
I7
sg15
g3080
sg16
S'103217677996277760'
p3084
sg18
I6
sbs(S'25962591'
p3085
S'103232458824220673A'
tp3086
g4
(g5
g6
NtRp3087
(dp3088
g9
S'A'
sg10
g3085
sg11
Nsg12
S'objective'
p3089
sg14
I16
sg15
g3086
sg16
S'103232458824220673'
p3090
sg18
I0
sbs(S'177603947'
p3091
S'259135606137966593B'
tp3092
g4
(g5
g6
NtRp3093
(dp3094
g9
S'A'
sg10
g3091
sg11
Nsg12
S'objective'
p3095
sg14
I13
sg15
g3092
sg16
S'259135606137966593'
p3096
sg18
I1
sbs(S'342501741'
p3097
S'103142957296795648D'
tp3098
g4
(g5
g6
NtRp3099
(dp3100
g9
S'A'
sg10
g3097
sg11
Nsg12
S'neutral'
p3101
sg14
I5
sg15
g3098
sg16
S'103142957296795648'
p3102
sg18
I5
sbs(S'50909879'
p3103
S'264200442886623232F'
tp3104
g4
(g5
g6
NtRp3105
(dp3106
g9
S'A'
sg10
g3103
sg11
Nsg12
S'negative'
p3107
sg14
I18
sg15
g3104
sg16
S'264200442886623232'
p3108
sg18
I17
sbs(S'61771813'
p3109
S'240366397790765056C'
tp3110
g4
(g5
g6
NtRp3111
(dp3112
g9
S'A'
sg10
g3109
sg11
Nsg12
S'objective'
p3113
sg14
I18
sg15
g3110
sg16
S'240366397790765056'
p3114
sg18
I3
sbs(S'348788574'
p3115
S'101450548439560192B'
tp3116
g4
(g5
g6
NtRp3117
(dp3118
g9
S'A'
sg10
g3115
sg11
Nsg12
S'negative'
p3119
sg14
I4
sg15
g3116
sg16
S'101450548439560192'
p3120
sg18
I4
sbs(S'29548978'
p3121
S'115268610204766209D'
tp3122
g4
(g5
g6
NtRp3123
(dp3124
g9
S'A'
sg10
g3121
sg11
Nsg12
S'objective'
p3125
sg14
I21
sg15
g3122
sg16
S'115268610204766209'
p3126
sg18
I6
sbs(S'21925335'
p3127
S'220220804338679809D'
tp3128
g4
(g5
g6
NtRp3129
(dp3130
g9
S'A'
sg10
g3127
sg11
Nsg12
S'neutral'
p3131
sg14
I26
sg15
g3128
sg16
S'220220804338679809'
p3132
sg18
I22
sbs(S'251477467'
p3133
S'104380375945576448C'
tp3134
g4
(g5
g6
NtRp3135
(dp3136
g9
S'A'
sg10
g3133
sg11
Nsg12
S'objective'
p3137
sg14
I8
sg15
g3134
sg16
S'104380375945576448'
p3138
sg18
I3
sbs(S'162904928'
p3139
S'100395453350297600A'
tp3140
g4
(g5
g6
NtRp3141
(dp3142
g9
S'A'
sg10
g3139
sg11
Nsg12
S'objective'
p3143
sg14
I0
sg15
g3140
sg16
S'100395453350297600'
p3144
sg18
I0
sbs(S'19724392'
p3145
S'259306906642939904A'
tp3146
g4
(g5
g6
NtRp3147
(dp3148
g9
S'A'
sg10
g3145
sg11
Nsg12
S'objective'
p3149
sg14
I24
sg15
g3146
sg16
S'259306906642939904'
p3150
sg18
I0
sbs(S'31037343'
p3151
S'238453939270471680B'
tp3152
g4
(g5
g6
NtRp3153
(dp3154
g9
S'A'
sg10
g3151
sg11
Nsg12
S'positive'
p3155
sg14
I7
sg15
g3152
sg16
S'238453939270471680'
p3156
sg18
I5
sbs(S'358508158'
p3157
S'256885904461942785A'
tp3158
g4
(g5
g6
NtRp3159
(dp3160
g9
S'A'
sg10
g3157
sg11
Nsg12
S'positive'
p3161
sg14
I2
sg15
g3158
sg16
S'256885904461942785'
p3162
sg18
I0
sbs(S'99260593'
p3163
S'259983669446455296D'
tp3164
g4
(g5
g6
NtRp3165
(dp3166
g9
S'A'
sg10
g3163
sg11
Nsg12
S'positive'
p3167
sg14
I23
sg15
g3164
sg16
S'259983669446455296'
p3168
sg18
I23
sbs(S'205180397'
p3169
S'262994889929785344B'
tp3170
g4
(g5
g6
NtRp3171
(dp3172
g9
S'A'
sg10
g3169
sg11
Nsg12
S'negative'
p3173
sg14
I5
sg15
g3170
sg16
S'262994889929785344'
p3174
sg18
I2
sbs(S'62823680'
p3175
S'261572875306291200B'
tp3176
g4
(g5
g6
NtRp3177
(dp3178
g9
S'A'
sg10
g3175
sg11
Nsg12
S'objective'
p3179
sg14
I9
sg15
g3176
sg16
S'261572875306291200'
p3180
sg18
I2
sbs(S'349857864'
p3181
S'108170719875182592B'
tp3182
g4
(g5
g6
NtRp3183
(dp3184
g9
S'A'
sg10
g3181
sg11
Nsg12
S'positive'
p3185
sg14
I24
sg15
g3182
sg16
S'108170719875182592'
p3186
sg18
I21
sbs(S'531310923'
p3187
S'256746338073587712D'
tp3188
g4
(g5
g6
NtRp3189
(dp3190
g9
S'A'
sg10
g3187
sg11
Nsg12
S'positive'
p3191
sg14
I12
sg15
g3188
sg16
S'256746338073587712'
p3192
sg18
I11
sbs(S'539688945'
p3193
S'233428282270429184C'
tp3194
g4
(g5
g6
NtRp3195
(dp3196
g9
S'A'
sg10
g3193
sg11
Nsg12
S'objective'
p3197
sg14
I23
sg15
g3194
sg16
S'233428282270429184'
p3198
sg18
I18
sbs(S'69948216'
p3199
S'228698918727340032E'
tp3200
g4
(g5
g6
NtRp3201
(dp3202
g9
S'A'
sg10
g3199
sg11
Nsg12
S'objective'
p3203
sg14
I8
sg15
g3200
sg16
S'228698918727340032'
p3204
sg18
I4
sbs(S'356494473'
p3205
S'113455325029482496B'
tp3206
g4
(g5
g6
NtRp3207
(dp3208
g9
S'A'
sg10
g3205
sg11
Nsg12
S'neutral'
p3209
sg14
I5
sg15
g3206
sg16
S'113455325029482496'
p3210
sg18
I2
sbs(S'301301949'
p3211
S'234433845917802496B'
tp3212
g4
(g5
g6
NtRp3213
(dp3214
g9
S'A'
sg10
g3211
sg11
Nsg12
S'negative'
p3215
sg14
I3
sg15
g3212
sg16
S'234433845917802496'
p3216
sg18
I3
sbs(S'38621292'
p3217
S'233410057478479874D'
tp3218
g4
(g5
g6
NtRp3219
(dp3220
g9
S'A'
sg10
g3217
sg11
Nsg12
S'positive'
p3221
sg14
I16
sg15
g3218
sg16
S'233410057478479874'
p3222
sg18
I16
sbs(S'186349415'
p3223
S'100228151422099456D'
tp3224
g4
(g5
g6
NtRp3225
(dp3226
g9
S'A'
sg10
g3223
sg11
Nsg12
S'positive'
p3227
sg14
I12
sg15
g3224
sg16
S'100228151422099456'
p3228
sg18
I11
sbs(S'249320924'
p3229
S'100046752241041409D'
tp3230
g4
(g5
g6
NtRp3231
(dp3232
g9
S'A'
sg10
g3229
sg11
Nsg12
S'positive'
p3233
sg14
I21
sg15
g3230
sg16
S'100046752241041409'
p3234
sg18
I18
sbs(S'290120812'
p3235
S'175147659059929089G'
tp3236
g4
(g5
g6
NtRp3237
(dp3238
g9
S'A'
sg10
g3235
sg11
Nsg12
S'objective'
p3239
sg14
I25
sg15
g3236
sg16
S'175147659059929089'
p3240
sg18
I24
sbs(S'304395046'
p3241
S'103265197539590145C'
tp3242
g4
(g5
g6
NtRp3243
(dp3244
g9
S'A'
sg10
g3241
sg11
Nsg12
S'objective'
p3245
sg14
I23
sg15
g3242
sg16
S'103265197539590145'
p3246
sg18
I2
sbs(S'404654419'
p3247
S'264106058103025665D'
tp3248
g4
(g5
g6
NtRp3249
(dp3250
g9
S'A'
sg10
g3247
sg11
Nsg12
S'positive'
p3251
sg14
I26
sg15
g3248
sg16
S'264106058103025665'
p3252
sg18
I25
sbs(S'67071435'
p3253
S'101663482537181184A'
tp3254
g4
(g5
g6
NtRp3255
(dp3256
g9
S'A'
sg10
g3253
sg11
Nsg12
S'objective'
p3257
sg14
I2
sg15
g3254
sg16
S'101663482537181184'
p3258
sg18
I0
sbs(S'152556346'
p3259
S'260051608686170112B'
tp3260
g4
(g5
g6
NtRp3261
(dp3262
g9
S'A'
sg10
g3259
sg11
Nsg12
S'positive'
p3263
sg14
I2
sg15
g3260
sg16
S'260051608686170112'
p3264
sg18
I1
sbs(S'22327576'
p3265
S'241140200753987584A'
tp3266
g4
(g5
g6
NtRp3267
(dp3268
g9
S'A'
sg10
g3265
sg11
Nsg12
S'objective'
p3269
sg14
I20
sg15
g3266
sg16
S'241140200753987584'
p3270
sg18
I0
sbs(S'147606409'
p3271
S'111483585390854144B'
tp3272
g4
(g5
g6
NtRp3273
(dp3274
g9
S'A'
sg10
g3271
sg11
Nsg12
S'negative'
p3275
sg14
I3
sg15
g3272
sg16
S'111483585390854144'
p3276
sg18
I3
sbs(S'65732160'
p3277
S'103114987739942912A'
tp3278
g4
(g5
g6
NtRp3279
(dp3280
g9
S'A'
sg10
g3277
sg11
Nsg12
S'positive'
p3281
sg14
I1
sg15
g3278
sg16
S'103114987739942912'
p3282
sg18
I0
sbs(S'126841409'
p3283
S'106056652142284800B'
tp3284
g4
(g5
g6
NtRp3285
(dp3286
g9
S'A'
sg10
g3283
sg11
Nsg12
S'negative'
p3287
sg14
I17
sg15
g3284
sg16
S'106056652142284800'
p3288
sg18
I14
sbs(S'190284306'
p3289
S'261160991931375616A'
tp3290
g4
(g5
g6
NtRp3291
(dp3292
g9
S'A'
sg10
g3289
sg11
Nsg12
S'objective'
p3293
sg14
I17
sg15
g3290
sg16
S'261160991931375616'
p3294
sg18
I0
sbs(S'181992438'
p3295
S'244485221456703488A'
tp3296
g4
(g5
g6
NtRp3297
(dp3298
g9
S'A'
sg10
g3295
sg11
Nsg12
S'objective'
p3299
sg14
I4
sg15
g3296
sg16
S'244485221456703488'
p3300
sg18
I0
sbs(S'349109660'
p3301
S'101454064570732545C'
tp3302
g4
(g5
g6
NtRp3303
(dp3304
g9
S'A'
sg10
g3301
sg11
Nsg12
S'objective'
p3305
sg14
I9
sg15
g3302
sg16
S'101454064570732545'
p3306
sg18
I4
sbs(S'342549290'
p3307
S'252498062243680256A'
tp3308
g4
(g5
g6
NtRp3309
(dp3310
g9
S'A'
sg10
g3307
sg11
Nsg12
S'objective'
p3311
sg14
I6
sg15
g3308
sg16
S'252498062243680256'
p3312
sg18
I0
sbs(S'180660267'
p3313
S'225275029322084353A'
tp3314
g4
(g5
g6
NtRp3315
(dp3316
g9
S'A'
sg10
g3313
sg11
Nsg12
S'objective'
p3317
sg14
I22
sg15
g3314
sg16
S'225275029322084353'
p3318
sg18
I0
sbs(S'198284834'
p3319
S'245515667359539201C'
tp3320
g4
(g5
g6
NtRp3321
(dp3322
g9
S'A'
sg10
g3319
sg11
Nsg12
S'objective'
p3323
sg14
I16
sg15
g3320
sg16
S'245515667359539201'
p3324
sg18
I13
sbs(S'16267008'
p3325
S'103219393776992256B'
tp3326
g4
(g5
g6
NtRp3327
(dp3328
g9
S'A'
sg10
g3325
sg11
Nsg12
S'negative'
p3329
sg14
I3
sg15
g3326
sg16
S'103219393776992256'
p3330
sg18
I3
sbs(S'297064917'
p3331
S'216984093286608896A'
tp3332
g4
(g5
g6
NtRp3333
(dp3334
g9
S'A'
sg10
g3331
sg11
Nsg12
S'objective'
p3335
sg14
I16
sg15
g3332
sg16
S'216984093286608896'
p3336
sg18
I0
sbs(S'368265063'
p3337
S'254579556311265280C'
tp3338
g4
(g5
g6
NtRp3339
(dp3340
g9
S'A'
sg10
g3337
sg11
Nsg12
S'objective'
p3341
sg14
I14
sg15
g3338
sg16
S'254579556311265280'
p3342
sg18
I11
sbs(S'126024490'
p3343
S'248002296993177601D'
tp3344
g4
(g5
g6
NtRp3345
(dp3346
g9
S'A'
sg10
g3343
sg11
Nsg12
S'positive'
p3347
sg14
I20
sg15
g3344
sg16
S'248002296993177601'
p3348
sg18
I19
sbs(S'177344943'
p3349
S'198886420125990912C'
tp3350
g4
(g5
g6
NtRp3351
(dp3352
g9
S'A'
sg10
g3349
sg11
Nsg12
S'objective'
p3353
sg14
I21
sg15
g3350
sg16
S'198886420125990912'
p3354
sg18
I4
sbs(S'739945399'
p3355
S'262082580361379840A'
tp3356
g4
(g5
g6
NtRp3357
(dp3358
g9
S'A'
sg10
g3355
sg11
Nsg12
S'objective'
p3359
sg14
I1
sg15
g3356
sg16
S'262082580361379840'
p3360
sg18
I0
sbs(S'73218957'
p3361
S'263740710728114177B'
tp3362
g4
(g5
g6
NtRp3363
(dp3364
g9
S'A'
sg10
g3361
sg11
Nsg12
S'positive'
p3365
sg14
I8
sg15
g3362
sg16
S'263740710728114177'
p3366
sg18
I8
sbs(S'113726128'
p3367
S'113365713082793984C'
tp3368
g4
(g5
g6
NtRp3369
(dp3370
g9
S'A'
sg10
g3367
sg11
Nsg12
S'objective'
p3371
sg14
I9
sg15
g3368
sg16
S'113365713082793984'
p3372
sg18
I8
sbs(S'287477398'
p3373
S'100185002276425728D'
tp3374
g4
(g5
g6
NtRp3375
(dp3376
g9
S'A'
sg10
g3373
sg11
Nsg12
S'positive'
p3377
sg14
I22
sg15
g3374
sg16
S'100185002276425728'
p3378
sg18
I22
sbs(S'60652575'
p3379
S'104743986358530048B'
tp3380
g4
(g5
g6
NtRp3381
(dp3382
g9
S'A'
sg10
g3379
sg11
Nsg12
S'positive'
p3383
sg14
I10
sg15
g3380
sg16
S'104743986358530048'
p3384
sg18
I8
sbs(S'31037343'
p3385
S'238453939270471680I'
tp3386
g4
(g5
g6
NtRp3387
(dp3388
g9
S'A'
sg10
g3385
sg11
Nsg12
S'objective'
p3389
sg14
I24
sg15
g3386
sg16
S'238453939270471680'
p3390
sg18
I23
sbs(S'238766652'
p3391
S'260871645546287104A'
tp3392
g4
(g5
g6
NtRp3393
(dp3394
g9
S'A'
sg10
g3391
sg11
Nsg12
S'objective'
p3395
sg14
I14
sg15
g3392
sg16
S'260871645546287104'
p3396
sg18
I0
sbs(S'320428296'
p3397
S'253716160393138177A'
tp3398
g4
(g5
g6
NtRp3399
(dp3400
g9
S'A'
sg10
g3397
sg11
Nsg12
S'objective'
p3401
sg14
I10
sg15
g3398
sg16
S'253716160393138177'
p3402
sg18
I0
sbs(S'247855533'
p3403
S'188863888765370368B'
tp3404
g4
(g5
g6
NtRp3405
(dp3406
g9
S'A'
sg10
g3403
sg11
Nsg12
S'positive'
p3407
sg14
I8
sg15
g3404
sg16
S'188863888765370368'
p3408
sg18
I6
sbs(S'348788574'
p3409
S'101450548439560192C'
tp3410
g4
(g5
g6
NtRp3411
(dp3412
g9
S'A'
sg10
g3409
sg11
Nsg12
S'objective'
p3413
sg14
I12
sg15
g3410
sg16
S'101450548439560192'
p3414
sg18
I5
sbs(S'20756067'
p3415
S'259374136181288960C'
tp3416
g4
(g5
g6
NtRp3417
(dp3418
g9
S'A'
sg10
g3415
sg11
Nsg12
S'objective'
p3419
sg14
I16
sg15
g3416
sg16
S'259374136181288960'
p3420
sg18
I12
sbs(S'233066756'
p3421
S'104349784642560000C'
tp3422
g4
(g5
g6
NtRp3423
(dp3424
g9
S'A'
sg10
g3421
sg11
Nsg12
S'objective'
p3425
sg14
I9
sg15
g3422
sg16
S'104349784642560000'
p3426
sg18
I3
sbs(S'15707296'
p3427
S'104758566136725504A'
tp3428
g4
(g5
g6
NtRp3429
(dp3430
g9
S'A'
sg10
g3427
sg11
Nsg12
S'objective'
p3431
sg14
I23
sg15
g3428
sg16
S'104758566136725504'
p3432
sg18
I0
sbs(S'147259796'
p3433
S'262059855089651712B'
tp3434
g4
(g5
g6
NtRp3435
(dp3436
g9
S'A'
sg10
g3433
sg11
Nsg12
S'positive'
p3437
sg14
I18
sg15
g3434
sg16
S'262059855089651712'
p3438
sg18
I18
sbs(S'279268715'
p3439
S'260187702429876226A'
tp3440
g4
(g5
g6
NtRp3441
(dp3442
g9
S'A'
sg10
g3439
sg11
Nsg12
S'objective'
p3443
sg14
I2
sg15
g3440
sg16
S'260187702429876226'
p3444
sg18
I0
sbs(S'147899715'
p3445
S'263804057913815040D'
tp3446
g4
(g5
g6
NtRp3447
(dp3448
g9
S'A'
sg10
g3445
sg11
Nsg12
S'negative'
p3449
sg14
I19
sg15
g3446
sg16
S'263804057913815040'
p3450
sg18
I19
sbs(S'43099065'
p3451
S'100488964372307968B'
tp3452
g4
(g5
g6
NtRp3453
(dp3454
g9
S'A'
sg10
g3451
sg11
Nsg12
S'positive'
p3455
sg14
I7
sg15
g3452
sg16
S'100488964372307968'
p3456
sg18
I7
sbs(S'17491872'
p3457
S'104651390776918016D'
tp3458
g4
(g5
g6
NtRp3459
(dp3460
g9
S'A'
sg10
g3457
sg11
Nsg12
S'objective'
p3461
sg14
I9
sg15
g3458
sg16
S'104651390776918016'
p3462
sg18
I8
sbs(S'116628196'
p3463
S'203977468904878081B'
tp3464
g4
(g5
g6
NtRp3465
(dp3466
g9
S'A'
sg10
g3463
sg11
Nsg12
S'positive'
p3467
sg14
I3
sg15
g3464
sg16
S'203977468904878081'
p3468
sg18
I3
sbs(S'163041118'
p3469
S'261390324688097280A'
tp3470
g4
(g5
g6
NtRp3471
(dp3472
g9
S'A'
sg10
g3469
sg11
Nsg12
S'objective'
p3473
sg14
I7
sg15
g3470
sg16
S'261390324688097280'
p3474
sg18
I0
sbs(S'165350893'
p3475
S'103158179306807296C'
tp3476
g4
(g5
g6
NtRp3477
(dp3478
g9
S'A'
sg10
g3475
sg11
Nsg12
S'objective'
p3479
sg14
I14
sg15
g3476
sg16
S'103158179306807296'
p3480
sg18
I12
sbs(S'138926426'
p3481
S'242217227825340417B'
tp3482
g4
(g5
g6
NtRp3483
(dp3484
g9
S'A'
sg10
g3481
sg11
Nsg12
S'positive'
p3485
sg14
I7
sg15
g3482
sg16
S'242217227825340417'
p3486
sg18
I3
sbs(S'870560431'
p3487
S'258637038490877952A'
tp3488
g4
(g5
g6
NtRp3489
(dp3490
g9
S'A'
sg10
g3487
sg11
Nsg12
S'objective'
p3491
sg14
I19
sg15
g3488
sg16
S'258637038490877952'
p3492
sg18
I0
sbs(S'67071435'
p3493
S'101663482537181184F'
tp3494
g4
(g5
g6
NtRp3495
(dp3496
g9
S'A'
sg10
g3493
sg11
Nsg12
S'positive'
p3497
sg14
I24
sg15
g3494
sg16
S'101663482537181184'
p3498
sg18
I24
sbs(S'18095847'
p3499
S'118152182263586816B'
tp3500
g4
(g5
g6
NtRp3501
(dp3502
g9
S'A'
sg10
g3499
sg11
Nsg12
S'negative'
p3503
sg14
I12
sg15
g3500
sg16
S'118152182263586816'
p3504
sg18
I11
sbs(S'21411063'
p3505
S'108277951220551680B'
tp3506
g4
(g5
g6
NtRp3507
(dp3508
g9
S'A'
sg10
g3505
sg11
Nsg12
S'positive'
p3509
sg14
I21
sg15
g3506
sg16
S'108277951220551680'
p3510
sg18
I20
sbs(S'239420854'
p3511
S'103504889249923072B'
tp3512
g4
(g5
g6
NtRp3513
(dp3514
g9
S'A'
sg10
g3511
sg11
Nsg12
S'positive'
p3515
sg14
I13
sg15
g3512
sg16
S'103504889249923072'
p3516
sg18
I12
sbs(S'574029111'
p3517
S'264155228813795328A'
tp3518
g4
(g5
g6
NtRp3519
(dp3520
g9
S'A'
sg10
g3517
sg11
Nsg12
S'objective'
p3521
sg14
I22
sg15
g3518
sg16
S'264155228813795328'
p3522
sg18
I0
sbs(S'577067868'
p3523
S'263533649285218304A'
tp3524
g4
(g5
g6
NtRp3525
(dp3526
g9
S'A'
sg10
g3523
sg11
Nsg12
S'objective'
p3527
sg14
I1
sg15
g3524
sg16
S'263533649285218304'
p3528
sg18
I0
sbs(S'66786983'
p3529
S'103112103824601088A'
tp3530
g4
(g5
g6
NtRp3531
(dp3532
g9
S'A'
sg10
g3529
sg11
Nsg12
S'objective'
p3533
sg14
I26
sg15
g3530
sg16
S'103112103824601088'
p3534
sg18
I0
sbs(S'857282400'
p3535
S'264260503524745216A'
tp3536
g4
(g5
g6
NtRp3537
(dp3538
g9
S'A'
sg10
g3535
sg11
Nsg12
S'objective'
p3539
sg14
I11
sg15
g3536
sg16
S'264260503524745216'
p3540
sg18
I0
sbs(S'27781218'
p3541
S'264185830581604352B'
tp3542
g4
(g5
g6
NtRp3543
(dp3544
g9
S'A'
sg10
g3541
sg11
Nsg12
S'negative'
p3545
sg14
I4
sg15
g3542
sg16
S'264185830581604352'
p3546
sg18
I2
sbs(S'368265063'
p3547
S'254579556311265280D'
tp3548
g4
(g5
g6
NtRp3549
(dp3550
g9
S'A'
sg10
g3547
sg11
Nsg12
S'positive'
p3551
sg14
I16
sg15
g3548
sg16
S'254579556311265280'
p3552
sg18
I15
sbs(S'164355373'
p3553
S'118151992605556736A'
tp3554
g4
(g5
g6
NtRp3555
(dp3556
g9
S'A'
sg10
g3553
sg11
Nsg12
S'objective'
p3557
sg14
I7
sg15
g3554
sg16
S'118151992605556736'
p3558
sg18
I0
sbs(S'395924563'
p3559
S'236560243843276801D'
tp3560
g4
(g5
g6
NtRp3561
(dp3562
g9
S'A'
sg10
g3559
sg11
Nsg12
S'positive'
p3563
sg14
I8
sg15
g3560
sg16
S'236560243843276801'
p3564
sg18
I6
sbs(S'15421625'
p3565
S'264144760229474304A'
tp3566
g4
(g5
g6
NtRp3567
(dp3568
g9
S'A'
sg10
g3565
sg11
Nsg12
S'negative'
p3569
sg14
I0
sg15
g3566
sg16
S'264144760229474304'
p3570
sg18
I0
sbs(S'135616590'
p3571
S'260896179838128129A'
tp3572
g4
(g5
g6
NtRp3573
(dp3574
g9
S'A'
sg10
g3571
sg11
Nsg12
S'objective'
p3575
sg14
I9
sg15
g3572
sg16
S'260896179838128129'
p3576
sg18
I0
sbs(S'114905640'
p3577
S'104743886278238209D'
tp3578
g4
(g5
g6
NtRp3579
(dp3580
g9
S'A'
sg10
g3577
sg11
Nsg12
S'positive'
p3581
sg14
I5
sg15
g3578
sg16
S'104743886278238209'
p3582
sg18
I5
sbs(S'119519641'
p3583
S'263962593155219456A'
tp3584
g4
(g5
g6
NtRp3585
(dp3586
g9
S'A'
sg10
g3583
sg11
Nsg12
S'objective'
p3587
sg14
I6
sg15
g3584
sg16
S'263962593155219456'
p3588
sg18
I0
sbs(S'346400200'
p3589
S'264204445036974081E'
tp3590
g4
(g5
g6
NtRp3591
(dp3592
g9
S'A'
sg10
g3589
sg11
Nsg12
S'objective'
p3593
sg14
I22
sg15
g3590
sg16
S'264204445036974081'
p3594
sg18
I19
sbs(S'418054364'
p3595
S'264189461473157120B'
tp3596
g4
(g5
g6
NtRp3597
(dp3598
g9
S'A'
sg10
g3595
sg11
Nsg12
S'negative'
p3599
sg14
I2
sg15
g3596
sg16
S'264189461473157120'
p3600
sg18
I1
sbs(S'242341937'
p3601
S'248370653286240256F'
tp3602
g4
(g5
g6
NtRp3603
(dp3604
g9
S'A'
sg10
g3601
sg11
Nsg12
S'objective'
p3605
sg14
I14
sg15
g3602
sg16
S'248370653286240256'
p3606
sg18
I11
sbs(S'612415338'
p3607
S'263489626793185280E'
tp3608
g4
(g5
g6
NtRp3609
(dp3610
g9
S'A'
sg10
g3607
sg11
Nsg12
S'objective'
p3611
sg14
I22
sg15
g3608
sg16
S'263489626793185280'
p3612
sg18
I16
sbs(S'25152395'
p3613
S'180732852973993984D'
tp3614
g4
(g5
g6
NtRp3615
(dp3616
g9
S'A'
sg10
g3613
sg11
Nsg12
S'positive'
p3617
sg14
I12
sg15
g3614
sg16
S'180732852973993984'
p3618
sg18
I11
sbs(S'68750781'
p3619
S'194202072520990720D'
tp3620
g4
(g5
g6
NtRp3621
(dp3622
g9
S'A'
sg10
g3619
sg11
Nsg12
S'positive'
p3623
sg14
I5
sg15
g3620
sg16
S'194202072520990720'
p3624
sg18
I5
sbs(S'242341937'
p3625
S'248370653286240256D'
tp3626
g4
(g5
g6
NtRp3627
(dp3628
g9
S'A'
sg10
g3625
sg11
Nsg12
S'objective'
p3629
sg14
I9
sg15
g3626
sg16
S'248370653286240256'
p3630
sg18
I6
sbs(S'20878375'
p3631
S'224570943807307776C'
tp3632
g4
(g5
g6
NtRp3633
(dp3634
g9
S'A'
sg10
g3631
sg11
Nsg12
S'objective'
p3635
sg14
I13
sg15
g3632
sg16
S'224570943807307776'
p3636
sg18
I9
sbs(S'167947794'
p3637
S'118167524167782401B'
tp3638
g4
(g5
g6
NtRp3639
(dp3640
g9
S'A'
sg10
g3637
sg11
Nsg12
S'positive'
p3641
sg14
I10
sg15
g3638
sg16
S'118167524167782401'
p3642
sg18
I5
sbs(S'168793226'
p3643
S'104576641904279552A'
tp3644
g4
(g5
g6
NtRp3645
(dp3646
g9
S'A'
sg10
g3643
sg11
Nsg12
S'positive'
p3647
sg14
I0
sg15
g3644
sg16
S'104576641904279552'
p3648
sg18
I0
sbs(S'135263715'
p3649
S'213573869846544385A'
tp3650
g4
(g5
g6
NtRp3651
(dp3652
g9
S'A'
sg10
g3649
sg11
Nsg12
S'objective'
p3653
sg14
I19
sg15
g3650
sg16
S'213573869846544385'
p3654
sg18
I0
sbs(S'165404022'
p3655
S'118166757763584000B'
tp3656
g4
(g5
g6
NtRp3657
(dp3658
g9
S'A'
sg10
g3655
sg11
Nsg12
S'positive'
p3659
sg14
I10
sg15
g3656
sg16
S'118166757763584000'
p3660
sg18
I10
sbs(S'733817984'
p3661
S'251727127060303873D'
tp3662
g4
(g5
g6
NtRp3663
(dp3664
g9
S'A'
sg10
g3661
sg11
Nsg12
S'negative'
p3665
sg14
I20
sg15
g3662
sg16
S'251727127060303873'
p3666
sg18
I20
sbs(S'17491872'
p3667
S'104651390776918016C'
tp3668
g4
(g5
g6
NtRp3669
(dp3670
g9
S'A'
sg10
g3667
sg11
Nsg12
S'positive'
p3671
sg14
I7
sg15
g3668
sg16
S'104651390776918016'
p3672
sg18
I5
sbs(S'543957976'
p3673
S'256032456820527104A'
tp3674
g4
(g5
g6
NtRp3675
(dp3676
g9
S'A'
sg10
g3673
sg11
Nsg12
S'objective'
p3677
sg14
I21
sg15
g3674
sg16
S'256032456820527104'
p3678
sg18
I0
sbs(S'370131557'
p3679
S'118482876625989632C'
tp3680
g4
(g5
g6
NtRp3681
(dp3682
g9
S'A'
sg10
g3679
sg11
Nsg12
S'objective'
p3683
sg14
I19
sg15
g3680
sg16
S'118482876625989632'
p3684
sg18
I11
sbs(S'143184246'
p3685
S'100259220338905089A'
tp3686
g4
(g5
g6
NtRp3687
(dp3688
g9
S'A'
sg10
g3685
sg11
Nsg12
S'objective'
p3689
sg14
I15
sg15
g3686
sg16
S'100259220338905089'
p3690
sg18
I0
sbs(S'464690043'
p3691
S'253560559868456960C'
tp3692
g4
(g5
g6
NtRp3693
(dp3694
g9
S'A'
sg10
g3691
sg11
Nsg12
S'objective'
p3695
sg14
I16
sg15
g3692
sg16
S'253560559868456960'
p3696
sg18
I11
sbs(S'49756682'
p3697
S'261999318007963648A'
tp3698
g4
(g5
g6
NtRp3699
(dp3700
g9
S'A'
sg10
g3697
sg11
Nsg12
S'objective'
p3701
sg14
I25
sg15
g3698
sg16
S'261999318007963648'
p3702
sg18
I0
sbs(S'28960735'
p3703
S'257762323924664320A'
tp3704
g4
(g5
g6
NtRp3705
(dp3706
g9
S'A'
sg10
g3703
sg11
Nsg12
S'objective'
p3707
sg14
I20
sg15
g3704
sg16
S'257762323924664320'
p3708
sg18
I0
sbs(S'35990273'
p3709
S'247031555493621762A'
tp3710
g4
(g5
g6
NtRp3711
(dp3712
g9
S'A'
sg10
g3709
sg11
Nsg12
S'objective'
p3713
sg14
I17
sg15
g3710
sg16
S'247031555493621762'
p3714
sg18
I0
sbs(S'163998890'
p3715
S'259048276672782336C'
tp3716
g4
(g5
g6
NtRp3717
(dp3718
g9
S'A'
sg10
g3715
sg11
Nsg12
S'objective'
p3719
sg14
I15
sg15
g3716
sg16
S'259048276672782336'
p3720
sg18
I11
sbs(S'553882398'
p3721
S'240195388693413891A'
tp3722
g4
(g5
g6
NtRp3723
(dp3724
g9
S'A'
sg10
g3721
sg11
Nsg12
S'objective'
p3725
sg14
I4
sg15
g3722
sg16
S'240195388693413891'
p3726
sg18
I0
sbs(S'322342303'
p3727
S'101828209850580993D'
tp3728
g4
(g5
g6
NtRp3729
(dp3730
g9
S'A'
sg10
g3727
sg11
Nsg12
S'positive'
p3731
sg14
I19
sg15
g3728
sg16
S'101828209850580993'
p3732
sg18
I19
sbs(S'404654419'
p3733
S'264106058103025665A'
tp3734
g4
(g5
g6
NtRp3735
(dp3736
g9
S'A'
sg10
g3733
sg11
Nsg12
S'objective'
p3737
sg14
I21
sg15
g3734
sg16
S'264106058103025665'
p3738
sg18
I0
sbs(S'198814114'
p3739
S'257824517202771969B'
tp3740
g4
(g5
g6
NtRp3741
(dp3742
g9
S'A'
sg10
g3739
sg11
Nsg12
S'positive'
p3743
sg14
I1
sg15
g3740
sg16
S'257824517202771969'
p3744
sg18
I1
sbs(S'586222653'
p3745
S'239582844974952448A'
tp3746
g4
(g5
g6
NtRp3747
(dp3748
g9
S'A'
sg10
g3745
sg11
Nsg12
S'objective'
p3749
sg14
I15
sg15
g3746
sg16
S'239582844974952448'
p3750
sg18
I0
sbs(S'183027479'
p3751
S'263973724288602112B'
tp3752
g4
(g5
g6
NtRp3753
(dp3754
g9
S'A'
sg10
g3751
sg11
Nsg12
S'positive'
p3755
sg14
I9
sg15
g3752
sg16
S'263973724288602112'
p3756
sg18
I7
sbs(S'27673803'
p3757
S'118362498155028480D'
tp3758
g4
(g5
g6
NtRp3759
(dp3760
g9
S'A'
sg10
g3757
sg11
Nsg12
S'neutral'
p3761
sg14
I3
sg15
g3758
sg16
S'118362498155028480'
p3762
sg18
I3
sbs(S'116848357'
p3763
S'257292826776322048A'
tp3764
g4
(g5
g6
NtRp3765
(dp3766
g9
S'A'
sg10
g3763
sg11
Nsg12
S'negative'
p3767
sg14
I2
sg15
g3764
sg16
S'257292826776322048'
p3768
sg18
I0
sbs(S'762638042'
p3769
S'264090452284821504C'
tp3770
g4
(g5
g6
NtRp3771
(dp3772
g9
S'A'
sg10
g3769
sg11
Nsg12
S'objective'
p3773
sg14
I14
sg15
g3770
sg16
S'264090452284821504'
p3774
sg18
I5
sbs(S'170938747'
p3775
S'263816911874314240A'
tp3776
g4
(g5
g6
NtRp3777
(dp3778
g9
S'A'
sg10
g3775
sg11
Nsg12
S'objective'
p3779
sg14
I0
sg15
g3776
sg16
S'263816911874314240'
p3780
sg18
I0
sbs(S'304395046'
p3781
S'103265197539590145A'
tp3782
g4
(g5
g6
NtRp3783
(dp3784
g9
S'A'
sg10
g3781
sg11
Nsg12
S'objective'
p3785
sg14
I0
sg15
g3782
sg16
S'103265197539590145'
p3786
sg18
I0
sbs(S'3015401'
p3787
S'100397126370078721C'
tp3788
g4
(g5
g6
NtRp3789
(dp3790
g9
S'A'
sg10
g3787
sg11
Nsg12
S'objective'
p3791
sg14
I9
sg15
g3788
sg16
S'100397126370078721'
p3792
sg18
I8
sbs(S'181992438'
p3793
S'244485221456703488B'
tp3794
g4
(g5
g6
NtRp3795
(dp3796
g9
S'A'
sg10
g3793
sg11
Nsg12
S'positive'
p3797
sg14
I5
sg15
g3794
sg16
S'244485221456703488'
p3798
sg18
I5
sbs(S'228498230'
p3799
S'108261715120099328D'
tp3800
g4
(g5
g6
NtRp3801
(dp3802
g9
S'A'
sg10
g3799
sg11
Nsg12
S'negative'
p3803
sg14
I17
sg15
g3800
sg16
S'108261715120099328'
p3804
sg18
I16
sbs(S'198284834'
p3805
S'245515667359539201A'
tp3806
g4
(g5
g6
NtRp3807
(dp3808
g9
S'A'
sg10
g3805
sg11
Nsg12
S'objective'
p3809
sg14
I11
sg15
g3806
sg16
S'245515667359539201'
p3810
sg18
I0
sbs(S'35045078'
p3811
S'107415744429572097A'
tp3812
g4
(g5
g6
NtRp3813
(dp3814
g9
S'A'
sg10
g3811
sg11
Nsg12
S'objective'
p3815
sg14
I18
sg15
g3812
sg16
S'107415744429572097'
p3816
sg18
I0
sbs(S'394763270'
p3817
S'263984722617712640B'
tp3818
g4
(g5
g6
NtRp3819
(dp3820
g9
S'A'
sg10
g3817
sg11
Nsg12
S'positive'
p3821
sg14
I15
sg15
g3818
sg16
S'263984722617712640'
p3822
sg18
I15
sbs(S'50909879'
p3823
S'264200442886623232A'
tp3824
g4
(g5
g6
NtRp3825
(dp3826
g9
S'A'
sg10
g3823
sg11
Nsg12
S'objective'
p3827
sg14
I1
sg15
g3824
sg16
S'264200442886623232'
p3828
sg18
I0
sbs(S'332559560'
p3829
S'103232284173406208C'
tp3830
g4
(g5
g6
NtRp3831
(dp3832
g9
S'A'
sg10
g3829
sg11
Nsg12
S'objective'
p3833
sg14
I5
sg15
g3830
sg16
S'103232284173406208'
p3834
sg18
I5
sbs(S'168793226'
p3835
S'104576641904279552C'
tp3836
g4
(g5
g6
NtRp3837
(dp3838
g9
S'A'
sg10
g3835
sg11
Nsg12
S'positive'
p3839
sg14
I3
sg15
g3836
sg16
S'104576641904279552'
p3840
sg18
I2
sbs(S'223630163'
p3841
S'100348089285607425D'
tp3842
g4
(g5
g6
NtRp3843
(dp3844
g9
S'A'
sg10
g3841
sg11
Nsg12
S'positive'
p3845
sg14
I14
sg15
g3842
sg16
S'100348089285607425'
p3846
sg18
I14
sbs(S'113726128'
p3847
S'113365713082793984A'
tp3848
g4
(g5
g6
NtRp3849
(dp3850
g9
S'A'
sg10
g3847
sg11
Nsg12
S'objective'
p3851
sg14
I6
sg15
g3848
sg16
S'113365713082793984'
p3852
sg18
I0
sbs(S'94498989'
p3853
S'110180276801519616A'
tp3854
g4
(g5
g6
NtRp3855
(dp3856
g9
S'A'
sg10
g3853
sg11
Nsg12
S'positive'
p3857
sg14
I1
sg15
g3854
sg16
S'110180276801519616'
p3858
sg18
I0
sbs(S'373022265'
p3859
S'263986400012161024C'
tp3860
g4
(g5
g6
NtRp3861
(dp3862
g9
S'A'
sg10
g3859
sg11
Nsg12
S'objective'
p3863
sg14
I17
sg15
g3860
sg16
S'263986400012161024'
p3864
sg18
I15
sbs(S'337700729'
p3865
S'248401241196085248C'
tp3866
g4
(g5
g6
NtRp3867
(dp3868
g9
S'A'
sg10
g3865
sg11
Nsg12
S'objective'
p3869
sg14
I8
sg15
g3866
sg16
S'248401241196085248'
p3870
sg18
I6
sbs(S'31037343'
p3871
S'238453939270471680E'
tp3872
g4
(g5
g6
NtRp3873
(dp3874
g9
S'A'
sg10
g3871
sg11
Nsg12
S'objective'
p3875
sg14
I18
sg15
g3872
sg16
S'238453939270471680'
p3876
sg18
I11
sbs(S'272242171'
p3877
S'104713085306159104A'
tp3878
g4
(g5
g6
NtRp3879
(dp3880
g9
S'A'
sg10
g3877
sg11
Nsg12
S'objective'
p3881
sg14
I20
sg15
g3878
sg16
S'104713085306159104'
p3882
sg18
I0
sbs(S'345548182'
p3883
S'216098777235329024D'
tp3884
g4
(g5
g6
NtRp3885
(dp3886
g9
S'A'
sg10
g3883
sg11
Nsg12
S'positive'
p3887
sg14
I19
sg15
g3884
sg16
S'216098777235329024'
p3888
sg18
I12
sbs(S'583884742'
p3889
S'264057505871695872C'
tp3890
g4
(g5
g6
NtRp3891
(dp3892
g9
S'A'
sg10
g3889
sg11
Nsg12
S'objective'
p3893
sg14
I18
sg15
g3890
sg16
S'264057505871695872'
p3894
sg18
I6
sbs(S'331237562'
p3895
S'243710849544486912A'
tp3896
g4
(g5
g6
NtRp3897
(dp3898
g9
S'A'
sg10
g3895
sg11
Nsg12
S'objective'
p3899
sg14
I23
sg15
g3896
sg16
S'243710849544486912'
p3900
sg18
I0
sbs(S'167482641'
p3901
S'262921934981971970E'
tp3902
g4
(g5
g6
NtRp3903
(dp3904
g9
S'A'
sg10
g3901
sg11
Nsg12
S'objective'
p3905
sg14
I19
sg15
g3902
sg16
S'262921934981971970'
p3906
sg18
I16
sbs(S'126841409'
p3907
S'106056652142284800A'
tp3908
g4
(g5
g6
NtRp3909
(dp3910
g9
S'A'
sg10
g3907
sg11
Nsg12
S'objective'
p3911
sg14
I13
sg15
g3908
sg16
S'106056652142284800'
p3912
sg18
I0
sbs(S'19961694'
p3913
S'259884564359548928B'
tp3914
g4
(g5
g6
NtRp3915
(dp3916
g9
S'A'
sg10
g3913
sg11
Nsg12
S'positive'
p3917
sg14
I5
sg15
g3914
sg16
S'259884564359548928'
p3918
sg18
I5
sbs(S'256331674'
p3919
S'253535994018664448A'
tp3920
g4
(g5
g6
NtRp3921
(dp3922
g9
S'A'
sg10
g3919
sg11
Nsg12
S'objective'
p3923
sg14
I22
sg15
g3920
sg16
S'253535994018664448'
p3924
sg18
I0
sbs(S'43099065'
p3925
S'100488964372307968C'
tp3926
g4
(g5
g6
NtRp3927
(dp3928
g9
S'A'
sg10
g3925
sg11
Nsg12
S'objective'
p3929
sg14
I22
sg15
g3926
sg16
S'100488964372307968'
p3930
sg18
I8
sbs(S'67065526'
p3931
S'264106310553985024C'
tp3932
g4
(g5
g6
NtRp3933
(dp3934
g9
S'A'
sg10
g3931
sg11
Nsg12
S'objective'
p3935
sg14
I21
sg15
g3932
sg16
S'264106310553985024'
p3936
sg18
I2
sbs(S'417509923'
p3937
S'263366711196123137F'
tp3938
g4
(g5
g6
NtRp3939
(dp3940
g9
S'A'
sg10
g3937
sg11
Nsg12
S'negative'
p3941
sg14
I24
sg15
g3938
sg16
S'263366711196123137'
p3942
sg18
I23
sbs(S'134602625'
p3943
S'104334934017183744A'
tp3944
g4
(g5
g6
NtRp3945
(dp3946
g9
S'A'
sg10
g3943
sg11
Nsg12
S'objective'
p3947
sg14
I7
sg15
g3944
sg16
S'104334934017183744'
p3948
sg18
I0
sbs(S'103998818'
p3949
S'227832288061317121E'
tp3950
g4
(g5
g6
NtRp3951
(dp3952
g9
S'A'
sg10
g3949
sg11
Nsg12
S'objective'
p3953
sg14
I27
sg15
g3950
sg16
S'227832288061317121'
p3954
sg18
I24
sbs(S'427621336'
p3955
S'263998344404291585A'
tp3956
g4
(g5
g6
NtRp3957
(dp3958
g9
S'A'
sg10
g3955
sg11
Nsg12
S'objective'
p3959
sg14
I14
sg15
g3956
sg16
S'263998344404291585'
p3960
sg18
I0
sbs(S'29518051'
p3961
S'246859125353488384A'
tp3962
g4
(g5
g6
NtRp3963
(dp3964
g9
S'A'
sg10
g3961
sg11
Nsg12
S'objective'
p3965
sg14
I0
sg15
g3962
sg16
S'246859125353488384'
p3966
sg18
I0
sbs(S'38621292'
p3967
S'233410057478479874A'
tp3968
g4
(g5
g6
NtRp3969
(dp3970
g9
S'A'
sg10
g3967
sg11
Nsg12
S'objective'
p3971
sg14
I1
sg15
g3968
sg16
S'233410057478479874'
p3972
sg18
I0
sbs(S'429269903'
p3973
S'264101009100513280A'
tp3974
g4
(g5
g6
NtRp3975
(dp3976
g9
S'A'
sg10
g3973
sg11
Nsg12
S'objective'
p3977
sg14
I8
sg15
g3974
sg16
S'264101009100513280'
p3978
sg18
I0
sbs(S'153853944'
p3979
S'102251784126468096B'
tp3980
g4
(g5
g6
NtRp3981
(dp3982
g9
S'A'
sg10
g3979
sg11
Nsg12
S'positive'
p3983
sg14
I22
sg15
g3980
sg16
S'102251784126468096'
p3984
sg18
I20
sbs(S'186289333'
p3985
S'102933220319956992B'
tp3986
g4
(g5
g6
NtRp3987
(dp3988
g9
S'A'
sg10
g3985
sg11
Nsg12
S'objective'
p3989
sg14
I15
sg15
g3986
sg16
S'102933220319956992'
p3990
sg18
I3
sbs(S'26330684'
p3991
S'240257783457525761A'
tp3992
g4
(g5
g6
NtRp3993
(dp3994
g9
S'A'
sg10
g3991
sg11
Nsg12
S'objective'
p3995
sg14
I13
sg15
g3992
sg16
S'240257783457525761'
p3996
sg18
I0
sbs(S'19961694'
p3997
S'259612493649948673C'
tp3998
g4
(g5
g6
NtRp3999
(dp4000
g9
S'A'
sg10
g3997
sg11
Nsg12
S'objective'
p4001
sg14
I22
sg15
g3998
sg16
S'259612493649948673'
p4002
sg18
I5
sbs(S'24480432'
p4003
S'103175120390078465A'
tp4004
g4
(g5
g6
NtRp4005
(dp4006
g9
S'A'
sg10
g4003
sg11
Nsg12
S'objective'
p4007
sg14
I14
sg15
g4004
sg16
S'103175120390078465'
p4008
sg18
I0
sbs(S'367155425'
p4009
S'256827998165151744B'
tp4010
g4
(g5
g6
NtRp4011
(dp4012
g9
S'A'
sg10
g4009
sg11
Nsg12
S'positive'
p4013
sg14
I9
sg15
g4010
sg16
S'256827998165151744'
p4014
sg18
I7
sbs(S'170417924'
p4015
S'108261821235990528B'
tp4016
g4
(g5
g6
NtRp4017
(dp4018
g9
S'A'
sg10
g4015
sg11
Nsg12
S'positive'
p4019
sg14
I3
sg15
g4016
sg16
S'108261821235990528'
p4020
sg18
I3
sbs(S'246222514'
p4021
S'107189808840978432E'
tp4022
g4
(g5
g6
NtRp4023
(dp4024
g9
S'A'
sg10
g4021
sg11
Nsg12
S'objective'
p4025
sg14
I28
sg15
g4022
sg16
S'107189808840978432'
p4026
sg18
I24
sbs(S'34877293'
p4027
S'100001362305236993A'
tp4028
g4
(g5
g6
NtRp4029
(dp4030
g9
S'A'
sg10
g4027
sg11
Nsg12
S'objective'
p4031
sg14
I0
sg15
g4028
sg16
S'100001362305236993'
p4032
sg18
I0
sbs(S'349109660'
p4033
S'101454064570732545D'
tp4034
g4
(g5
g6
NtRp4035
(dp4036
g9
S'A'
sg10
g4033
sg11
Nsg12
S'negative'
p4037
sg14
I10
sg15
g4034
sg16
S'101454064570732545'
p4038
sg18
I10
sbs(S'276816155'
p4039
S'111054768922832896C'
tp4040
g4
(g5
g6
NtRp4041
(dp4042
g9
S'A'
sg10
g4039
sg11
Nsg12
S'objective'
p4043
sg14
I21
sg15
g4040
sg16
S'111054768922832896'
p4044
sg18
I3
sbs(S'212483510'
p4045
S'111538042954723328A'
tp4046
g4
(g5
g6
NtRp4047
(dp4048
g9
S'A'
sg10
g4045
sg11
Nsg12
S'objective'
p4049
sg14
I10
sg15
g4046
sg16
S'111538042954723328'
p4050
sg18
I0
sbs(S'732673236'
p4051
S'263461390172442624A'
tp4052
g4
(g5
g6
NtRp4053
(dp4054
g9
S'A'
sg10
g4051
sg11
Nsg12
S'objective'
p4055
sg14
I12
sg15
g4052
sg16
S'263461390172442624'
p4056
sg18
I0
sbs(S'98627870'
p4057
S'103217677996277760D'
tp4058
g4
(g5
g6
NtRp4059
(dp4060
g9
S'A'
sg10
g4057
sg11
Nsg12
S'negative'
p4061
sg14
I17
sg15
g4058
sg16
S'103217677996277760'
p4062
sg18
I14
sbs(S'208816833'
p4063
S'101058853269016577A'
tp4064
g4
(g5
g6
NtRp4065
(dp4066
g9
S'A'
sg10
g4063
sg11
Nsg12
S'objective'
p4067
sg14
I21
sg15
g4064
sg16
S'101058853269016577'
p4068
sg18
I0
sbs(S'308652061'
p4069
S'118287761257152514A'
tp4070
g4
(g5
g6
NtRp4071
(dp4072
g9
S'A'
sg10
g4069
sg11
Nsg12
S'objective'
p4073
sg14
I17
sg15
g4070
sg16
S'118287761257152514'
p4074
sg18
I0
sbs(S'170938747'
p4075
S'263816911874314240E'
tp4076
g4
(g5
g6
NtRp4077
(dp4078
g9
S'A'
sg10
g4075
sg11
Nsg12
S'objective'
p4079
sg14
I24
sg15
g4076
sg16
S'263816911874314240'
p4080
sg18
I12
sbs(S'61771813'
p4081
S'240366397790765056A'
tp4082
g4
(g5
g6
NtRp4083
(dp4084
g9
S'A'
sg10
g4081
sg11
Nsg12
S'objective'
p4085
sg14
I0
sg15
g4082
sg16
S'240366397790765056'
p4086
sg18
I0
sbs(S'71286461'
p4087
S'101815600862597121A'
tp4088
g4
(g5
g6
NtRp4089
(dp4090
g9
S'A'
sg10
g4087
sg11
Nsg12
S'objective'
p4091
sg14
I21
sg15
g4088
sg16
S'101815600862597121'
p4092
sg18
I0
sbs(S'245147147'
p4093
S'264050462670614528D'
tp4094
g4
(g5
g6
NtRp4095
(dp4096
g9
S'A'
sg10
g4093
sg11
Nsg12
S'objective'
p4097
sg14
I11
sg15
g4094
sg16
S'264050462670614528'
p4098
sg18
I7
sbs(S'274558478'
p4099
S'258709039448457216A'
tp4100
g4
(g5
g6
NtRp4101
(dp4102
g9
S'A'
sg10
g4099
sg11
Nsg12
S'objective'
p4103
sg14
I19
sg15
g4100
sg16
S'258709039448457216'
p4104
sg18
I0
sbs(S'21925335'
p4105
S'220220804338679809B'
tp4106
g4
(g5
g6
NtRp4107
(dp4108
g9
S'A'
sg10
g4105
sg11
Nsg12
S'negative'
p4109
sg14
I14
sg15
g4106
sg16
S'220220804338679809'
p4110
sg18
I10
sbs(S'162904928'
p4111
S'100395453350297600C'
tp4112
g4
(g5
g6
NtRp4113
(dp4114
g9
S'A'
sg10
g4111
sg11
Nsg12
S'objective'
p4115
sg14
I6
sg15
g4112
sg16
S'100395453350297600'
p4116
sg18
I2
sbs(S'248839886'
p4117
S'262522947984572416B'
tp4118
g4
(g5
g6
NtRp4119
(dp4120
g9
S'A'
sg10
g4117
sg11
Nsg12
S'positive'
p4121
sg14
I3
sg15
g4118
sg16
S'262522947984572416'
p4122
sg18
I3
sbs(S'436975790'
p4123
S'263332884411215873C'
tp4124
g4
(g5
g6
NtRp4125
(dp4126
g9
S'A'
sg10
g4123
sg11
Nsg12
S'objective'
p4127
sg14
I23
sg15
g4124
sg16
S'263332884411215873'
p4128
sg18
I21
sbs(S'18641182'
p4129
S'253213326627176449A'
tp4130
g4
(g5
g6
NtRp4131
(dp4132
g9
S'A'
sg10
g4129
sg11
Nsg12
S'objective'
p4133
sg14
I21
sg15
g4130
sg16
S'253213326627176449'
p4134
sg18
I0
sbs(S'233066756'
p4135
S'104349784642560000D'
tp4136
g4
(g5
g6
NtRp4137
(dp4138
g9
S'A'
sg10
g4135
sg11
Nsg12
S'positive'
p4139
sg14
I13
sg15
g4136
sg16
S'104349784642560000'
p4140
sg18
I10
sbs(S'296502129'
p4141
S'103263786764480512B'
tp4142
g4
(g5
g6
NtRp4143
(dp4144
g9
S'A'
sg10
g4141
sg11
Nsg12
S'positive'
p4145
sg14
I2
sg15
g4142
sg16
S'103263786764480512'
p4146
sg18
I2
sbs(S'531310923'
p4147
S'256746338073587712B'
tp4148
g4
(g5
g6
NtRp4149
(dp4150
g9
S'A'
sg10
g4147
sg11
Nsg12
S'positive'
p4151
sg14
I1
sg15
g4148
sg16
S'256746338073587712'
p4152
sg18
I1
sbs(S'539688945'
p4153
S'233428282270429184A'
tp4154
g4
(g5
g6
NtRp4155
(dp4156
g9
S'A'
sg10
g4153
sg11
Nsg12
S'objective'
p4157
sg14
I15
sg15
g4154
sg16
S'233428282270429184'
p4158
sg18
I0
sbs(S'69948216'
p4159
S'228698918727340032C'
tp4160
g4
(g5
g6
NtRp4161
(dp4162
g9
S'A'
sg10
g4159
sg11
Nsg12
S'objective'
p4163
sg14
I2
sg15
g4160
sg16
S'228698918727340032'
p4164
sg18
I2
sbs(S'68244172'
p4165
S'263610585143459843A'
tp4166
g4
(g5
g6
NtRp4167
(dp4168
g9
S'A'
sg10
g4165
sg11
Nsg12
S'objective'
p4169
sg14
I1
sg15
g4166
sg16
S'263610585143459843'
p4170
sg18
I0
sbs(S'174592946'
p4171
S'231003261216362496A'
tp4172
g4
(g5
g6
NtRp4173
(dp4174
g9
S'A'
sg10
g4171
sg11
Nsg12
S'objective'
p4175
sg14
I18
sg15
g4172
sg16
S'231003261216362496'
p4176
sg18
I0
sbs(S'253365698'
p4177
S'238301365972119552A'
tp4178
g4
(g5
g6
NtRp4179
(dp4180
g9
S'A'
sg10
g4177
sg11
Nsg12
S'objective'
p4181
sg14
I16
sg15
g4178
sg16
S'238301365972119552'
p4182
sg18
I0
sbs(S'63532465'
p4183
S'100665193335500800A'
tp4184
g4
(g5
g6
NtRp4185
(dp4186
g9
S'A'
sg10
g4183
sg11
Nsg12
S'objective'
p4187
sg14
I9
sg15
g4184
sg16
S'100665193335500800'
p4188
sg18
I0
sbs(S'186349415'
p4189
S'100228151422099456B'
tp4190
g4
(g5
g6
NtRp4191
(dp4192
g9
S'A'
sg10
g4189
sg11
Nsg12
S'negative'
p4193
sg14
I4
sg15
g4190
sg16
S'100228151422099456'
p4194
sg18
I4
sbs(S'290120812'
p4195
S'175147659059929089E'
tp4196
g4
(g5
g6
NtRp4197
(dp4198
g9
S'A'
sg10
g4195
sg11
Nsg12
S'objective'
p4199
sg14
I22
sg15
g4196
sg16
S'175147659059929089'
p4200
sg18
I21
sbs(S'556841842'
p4201
S'264189676666093568A'
tp4202
g4
(g5
g6
NtRp4203
(dp4204
g9
S'A'
sg10
g4201
sg11
Nsg12
S'objective'
p4205
sg14
I1
sg15
g4202
sg16
S'264189676666093568'
p4206
sg18
I0
sbs(S'404654419'
p4207
S'264106058103025665B'
tp4208
g4
(g5
g6
NtRp4209
(dp4210
g9
S'A'
sg10
g4207
sg11
Nsg12
S'negative'
p4211
sg14
I23
sg15
g4208
sg16
S'264106058103025665'
p4212
sg18
I22
sbs(S'156699481'
p4213
S'250030653821825025C'
tp4214
g4
(g5
g6
NtRp4215
(dp4216
g9
S'A'
sg10
g4213
sg11
Nsg12
S'objective'
p4217
sg14
I21
sg15
g4214
sg16
S'250030653821825025'
p4218
sg18
I15
sbs(S'297382357'
p4219
S'212454254445727744C'
tp4220
g4
(g5
g6
NtRp4221
(dp4222
g9
S'A'
sg10
g4219
sg11
Nsg12
S'negative'
p4223
sg14
I16
sg15
g4220
sg16
S'212454254445727744'
p4224
sg18
I16
sbs(S'11282622'
p4225
S'195015914754818048B'
tp4226
g4
(g5
g6
NtRp4227
(dp4228
g9
S'A'
sg10
g4225
sg11
Nsg12
S'positive'
p4229
sg14
I3
sg15
g4226
sg16
S'195015914754818048'
p4230
sg18
I2
sbs(S'44434255'
p4231
S'245062966679064576B'
tp4232
g4
(g5
g6
NtRp4233
(dp4234
g9
S'A'
sg10
g4231
sg11
Nsg12
S'negative'
p4235
sg14
I15
sg15
g4232
sg16
S'245062966679064576'
p4236
sg18
I13
sbs(S'353946567'
p4237
S'108201763772960769E'
tp4238
g4
(g5
g6
NtRp4239
(dp4240
g9
S'A'
sg10
g4237
sg11
Nsg12
S'objective'
p4241
sg14
I24
sg15
g4238
sg16
S'108201763772960769'
p4242
sg18
I20
sbs(S'42111972'
p4243
S'261627107552149504A'
tp4244
g4
(g5
g6
NtRp4245
(dp4246
g9
S'A'
sg10
g4243
sg11
Nsg12
S'objective'
p4247
sg14
I18
sg15
g4244
sg16
S'261627107552149504'
p4248
sg18
I0
sbs(S'177344943'
p4249
S'198886420125990912A'
tp4250
g4
(g5
g6
NtRp4251
(dp4252
g9
S'A'
sg10
g4249
sg11
Nsg12
S'objective'
p4253
sg14
I1
sg15
g4250
sg16
S'198886420125990912'
p4254
sg18
I0
sbs(S'33586366'
p4255
S'260105138251890688B'
tp4256
g4
(g5
g6
NtRp4257
(dp4258
g9
S'A'
sg10
g4255
sg11
Nsg12
S'positive'
p4259
sg14
I2
sg15
g4256
sg16
S'260105138251890688'
p4260
sg18
I2
sbs(S'348788574'
p4261
S'101450548439560192A'
tp4262
g4
(g5
g6
NtRp4263
(dp4264
g9
S'A'
sg10
g4261
sg11
Nsg12
S'objective'
p4265
sg14
I3
sg15
g4262
sg16
S'101450548439560192'
p4266
sg18
I0
sbs(S'33446641'
p4267
S'109137504225067008A'
tp4268
g4
(g5
g6
NtRp4269
(dp4270
g9
S'A'
sg10
g4267
sg11
Nsg12
S'objective'
p4271
sg14
I27
sg15
g4268
sg16
S'109137504225067008'
p4272
sg18
I0
sbs(S'318670582'
p4273
S'102855541625335808B'
tp4274
g4
(g5
g6
NtRp4275
(dp4276
g9
S'A'
sg10
g4273
sg11
Nsg12
S'neutral'
p4277
sg14
I9
sg15
g4274
sg16
S'102855541625335808'
p4278
sg18
I9
sbs(S'368265063'
p4279
S'254579556311265280A'
tp4280
g4
(g5
g6
NtRp4281
(dp4282
g9
S'A'
sg10
g4279
sg11
Nsg12
S'objective'
p4283
sg14
I9
sg15
g4280
sg16
S'254579556311265280'
p4284
sg18
I0
sbs(S'523056659'
p4285
S'263135002252951553A'
tp4286
g4
(g5
g6
NtRp4287
(dp4288
g9
S'A'
sg10
g4285
sg11
Nsg12
S'objective'
p4289
sg14
I22
sg15
g4286
sg16
S'263135002252951553'
p4290
sg18
I0
sbs(S'126024490'
p4291
S'248002296993177601B'
tp4292
g4
(g5
g6
NtRp4293
(dp4294
g9
S'A'
sg10
g4291
sg11
Nsg12
S'positive'
p4295
sg14
I1
sg15
g4292
sg16
S'248002296993177601'
p4296
sg18
I1
sbs(S'395924563'
p4297
S'236560243843276801C'
tp4298
g4
(g5
g6
NtRp4299
(dp4300
g9
S'A'
sg10
g4297
sg11
Nsg12
S'objective'
p4301
sg14
I5
sg15
g4298
sg16
S'236560243843276801'
p4302
sg18
I5
sbs(S'3015401'
p4303
S'100397126370078721A'
tp4304
g4
(g5
g6
NtRp4305
(dp4306
g9
S'A'
sg10
g4303
sg11
Nsg12
S'objective'
p4307
sg14
I6
sg15
g4304
sg16
S'100397126370078721'
p4308
sg18
I0
sbs(S'15421625'
p4309
S'264144760229474304D'
tp4310
g4
(g5
g6
NtRp4311
(dp4312
g9
S'A'
sg10
g4309
sg11
Nsg12
S'objective'
p4313
sg14
I21
sg15
g4310
sg16
S'264144760229474304'
p4314
sg18
I5
sbs(S'739945399'
p4315
S'262082580361379840C'
tp4316
g4
(g5
g6
NtRp4317
(dp4318
g9
S'A'
sg10
g4315
sg11
Nsg12
S'objective'
p4319
sg14
I8
sg15
g4316
sg16
S'262082580361379840'
p4320
sg18
I4
sbs(S'245147147'
p4321
S'264050462670614528A'
tp4322
g4
(g5
g6
NtRp4323
(dp4324
g9
S'A'
sg10
g4321
sg11
Nsg12
S'positive'
p4325
sg14
I3
sg15
g4322
sg16
S'264050462670614528'
p4326
sg18
I0
sbs(S'252307187'
p4327
S'103158253193666560B'
tp4328
g4
(g5
g6
NtRp4329
(dp4330
g9
S'A'
sg10
g4327
sg11
Nsg12
S'positive'
p4331
sg14
I3
sg15
g4328
sg16
S'103158253193666560'
p4332
sg18
I3
sbs(S'108914234'
p4333
S'199829528468656129A'
tp4334
g4
(g5
g6
NtRp4335
(dp4336
g9
S'A'
sg10
g4333
sg11
Nsg12
S'objective'
p4337
sg14
I20
sg15
g4334
sg16
S'199829528468656129'
p4338
sg18
I0
sbs(S'530919604'
p4339
S'229644255537266688B'
tp4340
g4
(g5
g6
NtRp4341
(dp4342
g9
S'A'
sg10
g4339
sg11
Nsg12
S'positive'
p4343
sg14
I18
sg15
g4340
sg16
S'229644255537266688'
p4344
sg18
I16
sbs(S'550957683'
p4345
S'240515102988697601B'
tp4346
g4
(g5
g6
NtRp4347
(dp4348
g9
S'A'
sg10
g4345
sg11
Nsg12
S'positive'
p4349
sg14
I10
sg15
g4346
sg16
S'240515102988697601'
p4350
sg18
I9
sbs(S'127567306'
p4351
S'261452792298864640A'
tp4352
g4
(g5
g6
NtRp4353
(dp4354
g9
S'A'
sg10
g4351
sg11
Nsg12
S'positive'
p4355
sg14
I1
sg15
g4352
sg16
S'261452792298864640'
p4356
sg18
I0
sbs(S'324748107'
p4357
S'100517814976266242D'
tp4358
g4
(g5
g6
NtRp4359
(dp4360
g9
S'A'
sg10
g4357
sg11
Nsg12
S'negative'
p4361
sg14
I16
sg15
g4358
sg16
S'100517814976266242'
p4362
sg18
I16
sbs(S'423295027'
p4363
S'176601613903998976A'
tp4364
g4
(g5
g6
NtRp4365
(dp4366
g9
S'A'
sg10
g4363
sg11
Nsg12
S'objective'
p4367
sg14
I20
sg15
g4364
sg16
S'176601613903998976'
p4368
sg18
I0
sbs(S'557548188'
p4369
S'263158815116128256A'
tp4370
g4
(g5
g6
NtRp4371
(dp4372
g9
S'A'
sg10
g4369
sg11
Nsg12
S'objective'
p4373
sg14
I9
sg15
g4370
sg16
S'263158815116128256'
p4374
sg18
I0
sbs(S'20756067'
p4375
S'259374136181288960A'
tp4376
g4
(g5
g6
NtRp4377
(dp4378
g9
S'A'
sg10
g4375
sg11
Nsg12
S'objective'
p4379
sg14
I9
sg15
g4376
sg16
S'259374136181288960'
p4380
sg18
I0
sbs(S'167450610'
p4381
S'101269868329963520C'
tp4382
g4
(g5
g6
NtRp4383
(dp4384
g9
S'A'
sg10
g4381
sg11
Nsg12
S'objective'
p4385
sg14
I14
sg15
g4382
sg16
S'101269868329963520'
p4386
sg18
I14
sbs(S'67071435'
p4387
S'101663482537181184B'
tp4388
g4
(g5
g6
NtRp4389
(dp4390
g9
S'A'
sg10
g4387
sg11
Nsg12
S'negative'
p4391
sg14
I3
sg15
g4388
sg16
S'101663482537181184'
p4392
sg18
I3
sbs(S'69896660'
p4393
S'101451079404892160C'
tp4394
g4
(g5
g6
NtRp4395
(dp4396
g9
S'A'
sg10
g4393
sg11
Nsg12
S'objective'
p4397
sg14
I12
sg15
g4394
sg16
S'101451079404892160'
p4398
sg18
I9
sbs(S'76587091'
p4399
S'264251347195551744B'
tp4400
g4
(g5
g6
NtRp4401
(dp4402
g9
S'A'
sg10
g4399
sg11
Nsg12
S'objective'
p4403
sg14
I10
sg15
g4400
sg16
S'264251347195551744'
p4404
sg18
I4
sbs(S'866709174'
p4405
S'262501520535339008F'
tp4406
g4
(g5
g6
NtRp4407
(dp4408
g9
S'A'
sg10
g4405
sg11
Nsg12
S'positive'
p4409
sg14
I14
sg15
g4406
sg16
S'262501520535339008'
p4410
sg18
I13
sbs(S'279268715'
p4411
S'260187702429876226E'
tp4412
g4
(g5
g6
NtRp4413
(dp4414
g9
S'A'
sg10
g4411
sg11
Nsg12
S'objective'
p4415
sg14
I19
sg15
g4412
sg16
S'260187702429876226'
p4416
sg18
I10
sbs(S'178634171'
p4417
S'222350785583923200B'
tp4418
g4
(g5
g6
NtRp4419
(dp4420
g9
S'A'
sg10
g4417
sg11
Nsg12
S'positive'
p4421
sg14
I6
sg15
g4418
sg16
S'222350785583923200'
p4422
sg18
I6
sbs(S'19464472'
p4423
S'261081353636950016B'
tp4424
g4
(g5
g6
NtRp4425
(dp4426
g9
S'A'
sg10
g4423
sg11
Nsg12
S'positive'
p4427
sg14
I20
sg15
g4424
sg16
S'261081353636950016'
p4428
sg18
I18
sbs(S'290249353'
p4429
S'104639613175463936B'
tp4430
g4
(g5
g6
NtRp4431
(dp4432
g9
S'A'
sg10
g4429
sg11
Nsg12
S'positive'
p4433
sg14
I13
sg15
g4430
sg16
S'104639613175463936'
p4434
sg18
I13
sbs(S'329317762'
p4435
S'118152301532823552A'
tp4436
g4
(g5
g6
NtRp4437
(dp4438
g9
S'A'
sg10
g4435
sg11
Nsg12
S'objective'
p4439
sg14
I2
sg15
g4436
sg16
S'118152301532823552'
p4440
sg18
I0
sbs(S'321496438'
p4441
S'167545861423890432A'
tp4442
g4
(g5
g6
NtRp4443
(dp4444
g9
S'A'
sg10
g4441
sg11
Nsg12
S'objective'
p4445
sg14
I2
sg15
g4442
sg16
S'167545861423890432'
p4446
sg18
I0
sbs(S'511191300'
p4447
S'263743557779734528C'
tp4448
g4
(g5
g6
NtRp4449
(dp4450
g9
S'A'
sg10
g4447
sg11
Nsg12
S'objective'
p4451
sg14
I19
sg15
g4448
sg16
S'263743557779734528'
p4452
sg18
I18
sbs(S'85841896'
p4453
S'248132983159132160C'
tp4454
g4
(g5
g6
NtRp4455
(dp4456
g9
S'A'
sg10
g4453
sg11
Nsg12
S'objective'
p4457
sg14
I19
sg15
g4454
sg16
S'248132983159132160'
p4458
sg18
I2
sbs(S'217611229'
p4459
S'102885406122590208C'
tp4460
g4
(g5
g6
NtRp4461
(dp4462
g9
S'A'
sg10
g4459
sg11
Nsg12
S'objective'
p4463
sg14
I14
sg15
g4460
sg16
S'102885406122590208'
p4464
sg18
I7
sbs(S'114905640'
p4465
S'104743886278238209B'
tp4466
g4
(g5
g6
NtRp4467
(dp4468
g9
S'A'
sg10
g4465
sg11
Nsg12
S'positive'
p4469
sg14
I3
sg15
g4466
sg16
S'104743886278238209'
p4470
sg18
I3
sbs(S'158833342'
p4471
S'108292425813995520C'
tp4472
g4
(g5
g6
NtRp4473
(dp4474
g9
S'A'
sg10
g4471
sg11
Nsg12
S'objective'
p4475
sg14
I23
sg15
g4472
sg16
S'108292425813995520'
p4476
sg18
I14
sbs(S'391763857'
p4477
S'261715161335857153A'
tp4478
g4
(g5
g6
NtRp4479
(dp4480
g9
S'A'
sg10
g4477
sg11
Nsg12
S'objective'
p4481
sg14
I18
sg15
g4478
sg16
S'261715161335857153'
p4482
sg18
I0
sbs(S'164355373'
p4483
S'118151992605556736C'
tp4484
g4
(g5
g6
NtRp4485
(dp4486
g9
S'A'
sg10
g4483
sg11
Nsg12
S'objective'
p4487
sg14
I20
sg15
g4484
sg16
S'118151992605556736'
p4488
sg18
I9
sbs(S'347915191'
p4489
S'100274052534501376D'
tp4490
g4
(g5
g6
NtRp4491
(dp4492
g9
S'A'
sg10
g4489
sg11
Nsg12
S'positive'
p4493
sg14
I3
sg15
g4490
sg16
S'100274052534501376'
p4494
sg18
I3
sbs(S'29548978'
p4495
S'115268610204766209A'
tp4496
g4
(g5
g6
NtRp4497
(dp4498
g9
S'A'
sg10
g4495
sg11
Nsg12
S'positive'
p4499
sg14
I1
sg15
g4496
sg16
S'115268610204766209'
p4500
sg18
I0
sbs(S'185428677'
p4501
S'108232564933804032D'
tp4502
g4
(g5
g6
NtRp4503
(dp4504
g9
S'A'
sg10
g4501
sg11
Nsg12
S'positive'
p4505
sg14
I14
sg15
g4502
sg16
S'108232564933804032'
p4506
sg18
I14
sbs(S'15421625'
p4507
S'264144760229474304C'
tp4508
g4
(g5
g6
NtRp4509
(dp4510
g9
S'A'
sg10
g4507
sg11
Nsg12
S'negative'
p4511
sg14
I4
sg15
g4508
sg16
S'264144760229474304'
p4512
sg18
I4
sbs(S'19181741'
p4513
S'248122388099768320C'
tp4514
g4
(g5
g6
NtRp4515
(dp4516
g9
S'A'
sg10
g4513
sg11
Nsg12
S'objective'
p4517
sg14
I21
sg15
g4514
sg16
S'248122388099768320'
p4518
sg18
I14
sbs(S'119519641'
p4519
S'263962593155219456C'
tp4520
g4
(g5
g6
NtRp4521
(dp4522
g9
S'A'
sg10
g4519
sg11
Nsg12
S'objective'
p4523
sg14
I10
sg15
g4520
sg16
S'263962593155219456'
p4524
sg18
I8
sbs(S'72779300'
p4525
S'262792742982254592B'
tp4526
g4
(g5
g6
NtRp4527
(dp4528
g9
S'A'
sg10
g4525
sg11
Nsg12
S'negative'
p4529
sg14
I2
sg15
g4526
sg16
S'262792742982254592'
p4530
sg18
I2
sbs(S'418054364'
p4531
S'264189461473157120D'
tp4532
g4
(g5
g6
NtRp4533
(dp4534
g9
S'A'
sg10
g4531
sg11
Nsg12
S'negative'
p4535
sg14
I22
sg15
g4532
sg16
S'264189461473157120'
p4536
sg18
I22
sbs(S'407998827'
p4537
S'264165994702979072B'
tp4538
g4
(g5
g6
NtRp4539
(dp4540
g9
S'A'
sg10
g4537
sg11
Nsg12
S'positive'
p4541
sg14
I21
sg15
g4538
sg16
S'264165994702979072'
p4542
sg18
I21
sbs(S'439507318'
p4543
S'232905603322884096B'
tp4544
g4
(g5
g6
NtRp4545
(dp4546
g9
S'A'
sg10
g4543
sg11
Nsg12
S'positive'
p4547
sg14
I4
sg15
g4544
sg16
S'232905603322884096'
p4548
sg18
I3
sbs(S'612415338'
p4549
S'263489626793185280G'
tp4550
g4
(g5
g6
NtRp4551
(dp4552
g9
S'A'
sg10
g4549
sg11
Nsg12
S'objective'
p4553
sg14
I26
sg15
g4550
sg16
S'263489626793185280'
p4554
sg18
I25
sbs(S'321496438'
p4555
S'259358550869024768B'
tp4556
g4
(g5
g6
NtRp4557
(dp4558
g9
S'A'
sg10
g4555
sg11
Nsg12
S'negative'
p4559
sg14
I5
sg15
g4556
sg16
S'259358550869024768'
p4560
sg18
I3
sbs(S'118557560'
p4561
S'102902680632045568B'
tp4562
g4
(g5
g6
NtRp4563
(dp4564
g9
S'A'
sg10
g4561
sg11
Nsg12
S'positive'
p4565
sg14
I4
sg15
g4562
sg16
S'102902680632045568'
p4566
sg18
I2
sbs(S'68750781'
p4567
S'194202072520990720B'
tp4568
g4
(g5
g6
NtRp4569
(dp4570
g9
S'A'
sg10
g4567
sg11
Nsg12
S'positive'
p4571
sg14
I1
sg15
g4568
sg16
S'194202072520990720'
p4572
sg18
I1
sbs(S'20878375'
p4573
S'224570943807307776A'
tp4574
g4
(g5
g6
NtRp4575
(dp4576
g9
S'A'
sg10
g4573
sg11
Nsg12
S'objective'
p4577
sg14
I6
sg15
g4574
sg16
S'224570943807307776'
p4578
sg18
I0
sbs(S'62417515'
p4579
S'261119659175206912A'
tp4580
g4
(g5
g6
NtRp4581
(dp4582
g9
S'A'
sg10
g4579
sg11
Nsg12
S'objective'
p4583
sg14
I0
sg15
g4580
sg16
S'261119659175206912'
p4584
sg18
I0
sbs(S'167947794'
p4585
S'118167524167782401D'
tp4586
g4
(g5
g6
NtRp4587
(dp4588
g9
S'A'
sg10
g4585
sg11
Nsg12
S'negative'
p4589
sg14
I16
sg15
g4586
sg16
S'118167524167782401'
p4590
sg18
I13
sbs(S'117708301'
p4591
S'101800040519053315B'
tp4592
g4
(g5
g6
NtRp4593
(dp4594
g9
S'A'
sg10
g4591
sg11
Nsg12
S'positive'
p4595
sg14
I20
sg15
g4592
sg16
S'101800040519053315'
p4596
sg18
I20
sbs(S'37918420'
p4597
S'254331463363878912A'
tp4598
g4
(g5
g6
NtRp4599
(dp4600
g9
S'A'
sg10
g4597
sg11
Nsg12
S'objective'
p4601
sg14
I16
sg15
g4598
sg16
S'254331463363878912'
p4602
sg18
I0
sbs(S'345548182'
p4603
S'216098777235329024A'
tp4604
g4
(g5
g6
NtRp4605
(dp4606
g9
S'A'
sg10
g4603
sg11
Nsg12
S'objective'
p4607
sg14
I3
sg15
g4604
sg16
S'216098777235329024'
p4608
sg18
I0
sbs(S'165350893'
p4609
S'103158179306807296D'
tp4610
g4
(g5
g6
NtRp4611
(dp4612
g9
S'A'
sg10
g4609
sg11
Nsg12
S'positive'
p4613
sg14
I15
sg15
g4610
sg16
S'103158179306807296'
p4614
sg18
I15
sbs(S'733817984'
p4615
S'251727127060303873B'
tp4616
g4
(g5
g6
NtRp4617
(dp4618
g9
S'A'
sg10
g4615
sg11
Nsg12
S'positive'
p4619
sg14
I16
sg15
g4616
sg16
S'251727127060303873'
p4620
sg18
I15
sbs(S'21411063'
p4621
S'108277951220551680A'
tp4622
g4
(g5
g6
NtRp4623
(dp4624
g9
S'A'
sg10
g4621
sg11
Nsg12
S'objective'
p4625
sg14
I19
sg15
g4622
sg16
S'108277951220551680'
p4626
sg18
I0
sbs(S'148103434'
p4627
S'103233636798701568A'
tp4628
g4
(g5
g6
NtRp4629
(dp4630
g9
S'A'
sg10
g4627
sg11
Nsg12
S'positive'
p4631
sg14
I2
sg15
g4628
sg16
S'103233636798701568'
p4632
sg18
I0
sbs(S'27673803'
p4633
S'118362498155028480A'
tp4634
g4
(g5
g6
NtRp4635
(dp4636
g9
S'A'
sg10
g4633
sg11
Nsg12
S'objective'
p4637
sg14
I0
sg15
g4634
sg16
S'118362498155028480'
p4638
sg18
I0
sbs(S'370131557'
p4639
S'118482876625989632A'
tp4640
g4
(g5
g6
NtRp4641
(dp4642
g9
S'A'
sg10
g4639
sg11
Nsg12
S'objective'
p4643
sg14
I9
sg15
g4640
sg16
S'118482876625989632'
p4644
sg18
I0
sbs(S'501946653'
p4645
S'260889070509621249A'
tp4646
g4
(g5
g6
NtRp4647
(dp4648
g9
S'A'
sg10
g4645
sg11
Nsg12
S'positive'
p4649
sg14
I1
sg15
g4646
sg16
S'260889070509621249'
p4650
sg18
I0
sbs(S'17680681'
p4651
S'156387292737568768B'
tp4652
g4
(g5
g6
NtRp4653
(dp4654
g9
S'A'
sg10
g4651
sg11
Nsg12
S'negative'
p4655
sg14
I19
sg15
g4652
sg16
S'156387292737568768'
p4656
sg18
I19
sbs(S'223630163'
p4657
S'100348089285607425C'
tp4658
g4
(g5
g6
NtRp4659
(dp4660
g9
S'A'
sg10
g4657
sg11
Nsg12
S'objective'
p4661
sg14
I13
sg15
g4658
sg16
S'100348089285607425'
p4662
sg18
I7
sbs(S'553882398'
p4663
S'240195388693413891C'
tp4664
g4
(g5
g6
NtRp4665
(dp4666
g9
S'A'
sg10
g4663
sg11
Nsg12
S'objective'
p4667
sg14
I18
sg15
g4664
sg16
S'240195388693413891'
p4668
sg18
I7
sbs(S'322342303'
p4669
S'101828209850580993B'
tp4670
g4
(g5
g6
NtRp4671
(dp4672
g9
S'A'
sg10
g4669
sg11
Nsg12
S'positive'
p4673
sg14
I6
sg15
g4670
sg16
S'101828209850580993'
p4674
sg18
I5
sbs(S'171721620'
p4675
S'175160015462735872A'
tp4676
g4
(g5
g6
NtRp4677
(dp4678
g9
S'A'
sg10
g4675
sg11
Nsg12
S'objective'
p4679
sg14
I5
sg15
g4676
sg16
S'175160015462735872'
p4680
sg18
I0
sbs(S'14918147'
p4681
S'101450572363857921A'
tp4682
g4
(g5
g6
NtRp4683
(dp4684
g9
S'A'
sg10
g4681
sg11
Nsg12
S'objective'
p4685
sg14
I2
sg15
g4682
sg16
S'101450572363857921'
p4686
sg18
I0
sbs(S'116848357'
p4687
S'257292826776322048C'
tp4688
g4
(g5
g6
NtRp4689
(dp4690
g9
S'A'
sg10
g4687
sg11
Nsg12
S'negative'
p4691
sg14
I14
sg15
g4688
sg16
S'257292826776322048'
p4692
sg18
I10
sbs(S'762638042'
p4693
S'264090452284821504A'
tp4694
g4
(g5
g6
NtRp4695
(dp4696
g9
S'A'
sg10
g4693
sg11
Nsg12
S'objective'
p4697
sg14
I0
sg15
g4694
sg16
S'264090452284821504'
p4698
sg18
I0
sbs(S'501946653'
p4699
S'260889070509621249C'
tp4700
g4
(g5
g6
NtRp4701
(dp4702
g9
S'A'
sg10
g4699
sg11
Nsg12
S'positive'
p4703
sg14
I16
sg15
g4700
sg16
S'260889070509621249'
p4704
sg18
I14
sbs(S'17680681'
p4705
S'156387292737568768A'
tp4706
g4
(g5
g6
NtRp4707
(dp4708
g9
S'A'
sg10
g4705
sg11
Nsg12
S'objective'
p4709
sg14
I18
sg15
g4706
sg16
S'156387292737568768'
p4710
sg18
I0
sbs(S'149063337'
p4711
S'245844253408890880B'
tp4712
g4
(g5
g6
NtRp4713
(dp4714
g9
S'A'
sg10
g4711
sg11
Nsg12
S'negative'
p4715
sg14
I2
sg15
g4712
sg16
S'245844253408890880'
p4716
sg18
I1
sbs(S'77088549'
p4717
S'263451293933260800C'
tp4718
g4
(g5
g6
NtRp4719
(dp4720
g9
S'A'
sg10
g4717
sg11
Nsg12
S'objective'
p4721
sg14
I27
sg15
g4718
sg16
S'263451293933260800'
p4722
sg18
I3
sbs(S'770079542'
p4723
S'264105877722771456A'
tp4724
g4
(g5
g6
NtRp4725
(dp4726
g9
S'A'
sg10
g4723
sg11
Nsg12
S'objective'
p4727
sg14
I22
sg15
g4724
sg16
S'264105877722771456'
p4728
sg18
I0
sbs(S'156699481'
p4729
S'250030653821825025A'
tp4730
g4
(g5
g6
NtRp4731
(dp4732
g9
S'A'
sg10
g4729
sg11
Nsg12
S'objective'
p4733
sg14
I13
sg15
g4730
sg16
S'250030653821825025'
p4734
sg18
I0
sbs(S'438152067'
p4735
S'257843953452347392A'
tp4736
g4
(g5
g6
NtRp4737
(dp4738
g9
S'A'
sg10
g4735
sg11
Nsg12
S'objective'
p4739
sg14
I20
sg15
g4736
sg16
S'257843953452347392'
p4740
sg18
I0
sbs(S'98627870'
p4741
S'103217677996277760A'
tp4742
g4
(g5
g6
NtRp4743
(dp4744
g9
S'A'
sg10
g4741
sg11
Nsg12
S'objective'
p4745
sg14
I5
sg15
g4742
sg16
S'103217677996277760'
p4746
sg18
I0
sbs(S'382459056'
p4747
S'264169727134429186C'
tp4748
g4
(g5
g6
NtRp4749
(dp4750
g9
S'A'
sg10
g4747
sg11
Nsg12
S'objective'
p4751
sg14
I16
sg15
g4748
sg16
S'264169727134429186'
p4752
sg18
I13
sbs(S'276151090'
p4753
S'264214590869618688A'
tp4754
g4
(g5
g6
NtRp4755
(dp4756
g9
S'A'
sg10
g4753
sg11
Nsg12
S'objective'
p4757
sg14
I22
sg15
g4754
sg16
S'264214590869618688'
p4758
sg18
I0
sbs(S'25962591'
p4759
S'103232458824220673B'
tp4760
g4
(g5
g6
NtRp4761
(dp4762
g9
S'A'
sg10
g4759
sg11
Nsg12
S'negative'
p4763
sg14
I19
sg15
g4760
sg16
S'103232458824220673'
p4764
sg18
I17
sbs(S'20645542'
p4765
S'261631092539392000A'
tp4766
g4
(g5
g6
NtRp4767
(dp4768
g9
S'A'
sg10
g4765
sg11
Nsg12
S'objective'
p4769
sg14
I6
sg15
g4766
sg16
S'261631092539392000'
p4770
sg18
I0
sbs(S'50909879'
p4771
S'264200442886623232C'
tp4772
g4
(g5
g6
NtRp4773
(dp4774
g9
S'A'
sg10
g4771
sg11
Nsg12
S'objective'
p4775
sg14
I4
sg15
g4772
sg16
S'264200442886623232'
p4776
sg18
I4
sbs(S'101465967'
p4777
S'227992945368915969C'
tp4778
g4
(g5
g6
NtRp4779
(dp4780
g9
S'A'
sg10
g4777
sg11
Nsg12
S'objective'
p4781
sg14
I23
sg15
g4778
sg16
S'227992945368915969'
p4782
sg18
I21
sbs(S'577546457'
p4783
S'264157367481012224B'
tp4784
g4
(g5
g6
NtRp4785
(dp4786
g9
S'A'
sg10
g4783
sg11
Nsg12
S'negative'
p4787
sg14
I11
sg15
g4784
sg16
S'264157367481012224'
p4788
sg18
I9
sbs(S'246428848'
p4789
S'104517341710262272C'
tp4790
g4
(g5
g6
NtRp4791
(dp4792
g9
S'A'
sg10
g4789
sg11
Nsg12
S'positive'
p4793
sg14
I7
sg15
g4790
sg16
S'104517341710262272'
p4794
sg18
I6
sbs(S'162904928'
p4795
S'100395453350297600D'
tp4796
g4
(g5
g6
NtRp4797
(dp4798
g9
S'A'
sg10
g4795
sg11
Nsg12
S'positive'
p4799
sg14
I7
sg15
g4796
sg16
S'100395453350297600'
p4800
sg18
I7
sbs(S'31037343'
p4801
S'238453939270471680G'
tp4802
g4
(g5
g6
NtRp4803
(dp4804
g9
S'A'
sg10
g4801
sg11
Nsg12
S'objective'
p4805
sg14
I21
sg15
g4802
sg16
S'238453939270471680'
p4806
sg18
I21
sbs(S'358508158'
p4807
S'256885904461942785B'
tp4808
g4
(g5
g6
NtRp4809
(dp4810
g9
S'A'
sg10
g4807
sg11
Nsg12
S'objective'
p4811
sg14
I18
sg15
g4808
sg16
S'256885904461942785'
p4812
sg18
I3
sbs(S'27982261'
p4813
S'103157260112510976D'
tp4814
g4
(g5
g6
NtRp4815
(dp4816
g9
S'A'
sg10
g4813
sg11
Nsg12
S'negative'
p4817
sg14
I25
sg15
g4814
sg16
S'103157260112510976'
p4818
sg18
I23
sbs(S'99260593'
p4819
S'259983669446455296A'
tp4820
g4
(g5
g6
NtRp4821
(dp4822
g9
S'A'
sg10
g4819
sg11
Nsg12
S'objective'
p4823
sg14
I3
sg15
g4820
sg16
S'259983669446455296'
p4824
sg18
I0
sbs(S'324748107'
p4825
S'100517814976266242F'
tp4826
g4
(g5
g6
NtRp4827
(dp4828
g9
S'A'
sg10
g4825
sg11
Nsg12
S'neutral'
p4829
sg14
I19
sg15
g4826
sg16
S'100517814976266242'
p4830
sg18
I19
sbs(S'223630163'
p4831
S'100348089285607425E'
tp4832
g4
(g5
g6
NtRp4833
(dp4834
g9
S'A'
sg10
g4831
sg11
Nsg12
S'objective'
p4835
sg14
I20
sg15
g4832
sg16
S'100348089285607425'
p4836
sg18
I15
sbs(S'205180397'
p4837
S'262994889929785344A'
tp4838
g4
(g5
g6
NtRp4839
(dp4840
g9
S'A'
sg10
g4837
sg11
Nsg12
S'objective'
p4841
sg14
I1
sg15
g4838
sg16
S'262994889929785344'
p4842
sg18
I0
sbs(S'167482641'
p4843
S'262921934981971970C'
tp4844
g4
(g5
g6
NtRp4845
(dp4846
g9
S'A'
sg10
g4843
sg11
Nsg12
S'objective'
p4847
sg14
I14
sg15
g4844
sg16
S'262921934981971970'
p4848
sg18
I2
sbs(S'394181065'
p4849
S'261903146836713472A'
tp4850
g4
(g5
g6
NtRp4851
(dp4852
g9
S'A'
sg10
g4849
sg11
Nsg12
S'positive'
p4853
sg14
I2
sg15
g4850
sg16
S'261903146836713472'
p4854
sg18
I0
sbs(S'61853316'
p4855
S'103081947517034496C'
tp4856
g4
(g5
g6
NtRp4857
(dp4858
g9
S'A'
sg10
g4855
sg11
Nsg12
S'objective'
p4859
sg14
I25
sg15
g4856
sg16
S'103081947517034496'
p4860
sg18
I14
sbs(S'132930248'
p4861
S'103233520188657664B'
tp4862
g4
(g5
g6
NtRp4863
(dp4864
g9
S'A'
sg10
g4861
sg11
Nsg12
S'positive'
p4865
sg14
I3
sg15
g4862
sg16
S'103233520188657664'
p4866
sg18
I2
sbs(S'182194111'
p4867
S'248915569829613568A'
tp4868
g4
(g5
g6
NtRp4869
(dp4870
g9
S'A'
sg10
g4867
sg11
Nsg12
S'objective'
p4871
sg14
I18
sg15
g4868
sg16
S'248915569829613568'
p4872
sg18
I0
sbs(S'288690722'
p4873
S'183833135430111232A'
tp4874
g4
(g5
g6
NtRp4875
(dp4876
g9
S'A'
sg10
g4873
sg11
Nsg12
S'objective'
p4877
sg14
I4
sg15
g4874
sg16
S'183833135430111232'
p4878
sg18
I0
sbs(S'377474736'
p4879
S'257261869591568386A'
tp4880
g4
(g5
g6
NtRp4881
(dp4882
g9
S'A'
sg10
g4879
sg11
Nsg12
S'objective'
p4883
sg14
I21
sg15
g4880
sg16
S'257261869591568386'
p4884
sg18
I0
sbs(S'427621336'
p4885
S'263998344404291585C'
tp4886
g4
(g5
g6
NtRp4887
(dp4888
g9
S'A'
sg10
g4885
sg11
Nsg12
S'objective'
p4889
sg14
I16
sg15
g4886
sg16
S'263998344404291585'
p4890
sg18
I16
sbs(S'51755720'
p4891
S'103174922511192064C'
tp4892
g4
(g5
g6
NtRp4893
(dp4894
g9
S'A'
sg10
g4891
sg11
Nsg12
S'negative'
p4895
sg14
I17
sg15
g4892
sg16
S'103174922511192064'
p4896
sg18
I16
sbs(S'43598498'
p4897
S'118152030320734210A'
tp4898
g4
(g5
g6
NtRp4899
(dp4900
g9
S'A'
sg10
g4897
sg11
Nsg12
S'objective'
p4901
sg14
I5
sg15
g4898
sg16
S'118152030320734210'
p4902
sg18
I0
sbs(S'103386218'
p4903
S'246271122696450048B'
tp4904
g4
(g5
g6
NtRp4905
(dp4906
g9
S'A'
sg10
g4903
sg11
Nsg12
S'negative'
p4907
sg14
I5
sg15
g4904
sg16
S'246271122696450048'
p4908
sg18
I5
sbs(S'451249374'
p4909
S'264173066781880320A'
tp4910
g4
(g5
g6
NtRp4911
(dp4912
g9
S'A'
sg10
g4909
sg11
Nsg12
S'objective'
p4913
sg14
I7
sg15
g4910
sg16
S'264173066781880320'
p4914
sg18
I0
sbs(S'290120812'
p4915
S'175147659059929089B'
tp4916
g4
(g5
g6
NtRp4917
(dp4918
g9
S'A'
sg10
g4915
sg11
Nsg12
S'positive'
p4919
sg14
I5
sg15
g4916
sg16
S'175147659059929089'
p4920
sg18
I5
sbs(S'851443645'
p4921
S'252108209513455616C'
tp4922
g4
(g5
g6
NtRp4923
(dp4924
g9
S'A'
sg10
g4921
sg11
Nsg12
S'objective'
p4925
sg14
I10
sg15
g4922
sg16
S'252108209513455616'
p4926
sg18
I5
sbs(S'97967826'
p4927
S'113758849688805376A'
tp4928
g4
(g5
g6
NtRp4929
(dp4930
g9
S'A'
sg10
g4927
sg11
Nsg12
S'objective'
p4931
sg14
I7
sg15
g4928
sg16
S'113758849688805376'
p4932
sg18
I0
sbs(S'252307187'
p4933
S'103158253193666560C'
tp4934
g4
(g5
g6
NtRp4935
(dp4936
g9
S'A'
sg10
g4933
sg11
Nsg12
S'objective'
p4937
sg14
I7
sg15
g4934
sg16
S'103158253193666560'
p4938
sg18
I4
sbs(S'42828974'
p4939
S'110195528733704192C'
tp4940
g4
(g5
g6
NtRp4941
(dp4942
g9
S'A'
sg10
g4939
sg11
Nsg12
S'objective'
p4943
sg14
I22
sg15
g4940
sg16
S'110195528733704192'
p4944
sg18
I16
sbs(S'203740421'
p4945
S'106585520066404352A'
tp4946
g4
(g5
g6
NtRp4947
(dp4948
g9
S'A'
sg10
g4945
sg11
Nsg12
S'objective'
p4949
sg14
I12
sg15
g4946
sg16
S'106585520066404352'
p4950
sg18
I0
sbs(S'34879851'
p4951
S'179484875588509696A'
tp4952
g4
(g5
g6
NtRp4953
(dp4954
g9
S'A'
sg10
g4951
sg11
Nsg12
S'objective'
p4955
sg14
I15
sg15
g4952
sg16
S'179484875588509696'
p4956
sg18
I0
sbs(S'246222514'
p4957
S'107189808840978432C'
tp4958
g4
(g5
g6
NtRp4959
(dp4960
g9
S'A'
sg10
g4957
sg11
Nsg12
S'objective'
p4961
sg14
I19
sg15
g4958
sg16
S'107189808840978432'
p4962
sg18
I12
sbs(S'296502129'
p4963
S'103263897712201731B'
tp4964
g4
(g5
g6
NtRp4965
(dp4966
g9
S'A'
sg10
g4963
sg11
Nsg12
S'positive'
p4967
sg14
I6
sg15
g4964
sg16
S'103263897712201731'
p4968
sg18
I6
sbs(S'29597497'
p4969
S'104667078665048064A'
tp4970
g4
(g5
g6
NtRp4971
(dp4972
g9
S'A'
sg10
g4969
sg11
Nsg12
S'objective'
p4973
sg14
I2
sg15
g4970
sg16
S'104667078665048064'
p4974
sg18
I0
sbs(S'349109660'
p4975
S'101454064570732545F'
tp4976
g4
(g5
g6
NtRp4977
(dp4978
g9
S'A'
sg10
g4975
sg11
Nsg12
S'positive'
p4979
sg14
I17
sg15
g4976
sg16
S'101454064570732545'
p4980
sg18
I16
sbs(S'342549290'
p4981
S'252498062243680256B'
tp4982
g4
(g5
g6
NtRp4983
(dp4984
g9
S'A'
sg10
g4981
sg11
Nsg12
S'negative'
p4985
sg14
I8
sg15
g4982
sg16
S'252498062243680256'
p4986
sg18
I7
sbs(S'58830533'
p4987
S'264003998720348160A'
tp4988
g4
(g5
g6
NtRp4989
(dp4990
g9
S'A'
sg10
g4987
sg11
Nsg12
S'objective'
p4991
sg14
I8
sg15
g4988
sg16
S'264003998720348160'
p4992
sg18
I0
sbs(S'29548978'
p4993
S'115268610204766209C'
tp4994
g4
(g5
g6
NtRp4995
(dp4996
g9
S'A'
sg10
g4993
sg11
Nsg12
S'positive'
p4997
sg14
I5
sg15
g4994
sg16
S'115268610204766209'
p4998
sg18
I4
sbs(S'98940331'
p4999
S'263707008383987712B'
tp5000
g4
(g5
g6
NtRp5001
(dp5002
g9
S'A'
sg10
g4999
sg11
Nsg12
S'positive'
p5003
sg14
I13
sg15
g5000
sg16
S'263707008383987712'
p5004
sg18
I11
sbs(S'22503207'
p5005
S'107688409455276032A'
tp5006
g4
(g5
g6
NtRp5007
(dp5008
g9
S'A'
sg10
g5005
sg11
Nsg12
S'neutral'
p5009
sg14
I1
sg15
g5006
sg16
S'107688409455276032'
p5010
sg18
I0
sbs(S'27017792'
p5011
S'100682771369955328A'
tp5012
g4
(g5
g6
NtRp5013
(dp5014
g9
S'A'
sg10
g5011
sg11
Nsg12
S'objective'
p5015
sg14
I8
sg15
g5012
sg16
S'100682771369955328'
p5016
sg18
I0
sbs(S'158833342'
p5017
S'108292425813995520D'
tp5018
g4
(g5
g6
NtRp5019
(dp5020
g9
S'A'
sg10
g5017
sg11
Nsg12
S'positive'
p5021
sg14
I24
sg15
g5018
sg16
S'108292425813995520'
p5022
sg18
I24
sbs(S'19181741'
p5023
S'248122388099768320A'
tp5024
g4
(g5
g6
NtRp5025
(dp5026
g9
S'A'
sg10
g5023
sg11
Nsg12
S'objective'
p5027
sg14
I11
sg15
g5024
sg16
S'248122388099768320'
p5028
sg18
I0
sbs(S'73218957'
p5029
S'263740710728114177A'
tp5030
g4
(g5
g6
NtRp5031
(dp5032
g9
S'A'
sg10
g5029
sg11
Nsg12
S'objective'
p5033
sg14
I7
sg15
g5030
sg16
S'263740710728114177'
p5034
sg18
I0
sbs(S'115033551'
p5035
S'216024112999579649A'
tp5036
g4
(g5
g6
NtRp5037
(dp5038
g9
S'A'
sg10
g5035
sg11
Nsg12
S'objective'
p5039
sg14
I19
sg15
g5036
sg16
S'216024112999579649'
p5040
sg18
I0
sbs(S'287477398'
p5041
S'100185002276425728A'
tp5042
g4
(g5
g6
NtRp5043
(dp5044
g9
S'A'
sg10
g5041
sg11
Nsg12
S'objective'
p5045
sg14
I8
sg15
g5042
sg16
S'100185002276425728'
p5046
sg18
I0
sbs(S'248839886'
p5047
S'262522947984572416D'
tp5048
g4
(g5
g6
NtRp5049
(dp5050
g9
S'A'
sg10
g5047
sg11
Nsg12
S'positive'
p5051
sg14
I13
sg15
g5048
sg16
S'262522947984572416'
p5052
sg18
I13
sbs(S'436975790'
p5053
S'263332884411215873A'
tp5054
g4
(g5
g6
NtRp5055
(dp5056
g9
S'A'
sg10
g5053
sg11
Nsg12
S'objective'
p5057
sg14
I19
sg15
g5054
sg16
S'263332884411215873'
p5058
sg18
I0
sbs(S'191945151'
p5059
S'263786661517860865B'
tp5060
g4
(g5
g6
NtRp5061
(dp5062
g9
S'A'
sg10
g5059
sg11
Nsg12
S'positive'
p5063
sg14
I5
sg15
g5060
sg16
S'263786661517860865'
p5064
sg18
I5
sbs(S'531310923'
p5065
S'256746338073587712E'
tp5066
g4
(g5
g6
NtRp5067
(dp5068
g9
S'A'
sg10
g5065
sg11
Nsg12
S'objective'
p5069
sg14
I13
sg15
g5066
sg16
S'256746338073587712'
p5070
sg18
I13
sbs(S'19464472'
p5071
S'261081353636950016A'
tp5072
g4
(g5
g6
NtRp5073
(dp5074
g9
S'A'
sg10
g5071
sg11
Nsg12
S'objective'
p5075
sg14
I17
sg15
g5072
sg16
S'261081353636950016'
p5076
sg18
I0
sbs(S'127567306'
p5077
S'261452792298864640D'
tp5078
g4
(g5
g6
NtRp5079
(dp5080
g9
S'A'
sg10
g5077
sg11
Nsg12
S'objective'
p5081
sg14
I23
sg15
g5078
sg16
S'261452792298864640'
p5082
sg18
I23
sbs(S'757089673'
p5083
S'241711277532119040B'
tp5084
g4
(g5
g6
NtRp5085
(dp5086
g9
S'A'
sg10
g5083
sg11
Nsg12
S'objective'
p5087
sg14
I6
sg15
g5084
sg16
S'241711277532119040'
p5088
sg18
I1
sbs(S'774584642'
p5089
S'242718317050212352B'
tp5090
g4
(g5
g6
NtRp5091
(dp5092
g9
S'A'
sg10
g5089
sg11
Nsg12
S'positive'
p5093
sg14
I10
sg15
g5090
sg16
S'242718317050212352'
p5094
sg18
I9
sbs(S'774584642'
p5095
S'242718317050212352A'
tp5096
g4
(g5
g6
NtRp5097
(dp5098
g9
S'A'
sg10
g5095
sg11
Nsg12
S'objective'
p5099
sg14
I8
sg15
g5096
sg16
S'242718317050212352'
p5100
sg18
I0
sbs(S'417509923'
p5101
S'263366711196123137B'
tp5102
g4
(g5
g6
NtRp5103
(dp5104
g9
S'A'
sg10
g5101
sg11
Nsg12
S'negative'
p5105
sg14
I1
sg15
g5102
sg16
S'263366711196123137'
p5106
sg18
I1
sbs(S'69948216'
p5107
S'228698918727340032A'
tp5108
g4
(g5
g6
NtRp5109
(dp5110
g9
S'A'
sg10
g5107
sg11
Nsg12
S'objective'
p5111
sg14
I0
sg15
g5108
sg16
S'228698918727340032'
p5112
sg18
I0
sbs(S'68244172'
p5113
S'263610585143459843C'
tp5114
g4
(g5
g6
NtRp5115
(dp5116
g9
S'A'
sg10
g5113
sg11
Nsg12
S'objective'
p5117
sg14
I21
sg15
g5114
sg16
S'263610585143459843'
p5118
sg18
I3
sbs(S'183027479'
p5119
S'263973724288602112D'
tp5120
g4
(g5
g6
NtRp5121
(dp5122
g9
S'A'
sg10
g5119
sg11
Nsg12
S'positive'
p5123
sg14
I14
sg15
g5120
sg16
S'263973724288602112'
p5124
sg18
I11
sbs(S'116628196'
p5125
S'203977468904878081E'
tp5126
g4
(g5
g6
NtRp5127
(dp5128
g9
S'A'
sg10
g5125
sg11
Nsg12
S'objective'
p5129
sg14
I22
sg15
g5126
sg16
S'203977468904878081'
p5130
sg18
I11
sbs(S'63532465'
p5131
S'100665193335500800C'
tp5132
g4
(g5
g6
NtRp5133
(dp5134
g9
S'A'
sg10
g5131
sg11
Nsg12
S'objective'
p5135
sg14
I13
sg15
g5132
sg16
S'100665193335500800'
p5136
sg18
I11
sbs(S'122407565'
p5137
S'263010485098647554A'
tp5138
g4
(g5
g6
NtRp5139
(dp5140
g9
S'A'
sg10
g5137
sg11
Nsg12
S'objective'
p5141
sg14
I25
sg15
g5138
sg16
S'263010485098647554'
p5142
sg18
I0
sbs(S'866709174'
p5143
S'262501520535339008C'
tp5144
g4
(g5
g6
NtRp5145
(dp5146
g9
S'A'
sg10
g5143
sg11
Nsg12
S'objective'
p5147
sg14
I7
sg15
g5144
sg16
S'262501520535339008'
p5148
sg18
I6
sbs(S'556841842'
p5149
S'264189676666093568C'
tp5150
g4
(g5
g6
NtRp5151
(dp5152
g9
S'A'
sg10
g5149
sg11
Nsg12
S'objective'
p5153
sg14
I13
sg15
g5150
sg16
S'264189676666093568'
p5154
sg18
I5
sbs(S'851443645'
p5155
S'252108209513455616D'
tp5156
g4
(g5
g6
NtRp5157
(dp5158
g9
S'A'
sg10
g5155
sg11
Nsg12
S'positive'
p5159
sg14
I11
sg15
g5156
sg16
S'252108209513455616'
p5160
sg18
I11
sbs(S'67071435'
p5161
S'101663482537181184E'
tp5162
g4
(g5
g6
NtRp5163
(dp5164
g9
S'A'
sg10
g5161
sg11
Nsg12
S'objective'
p5165
sg14
I23
sg15
g5162
sg16
S'101663482537181184'
p5166
sg18
I11
sbs(S'178634171'
p5167
S'222350785583923200E'
tp5168
g4
(g5
g6
NtRp5169
(dp5170
g9
S'A'
sg10
g5167
sg11
Nsg12
S'objective'
p5171
sg14
I24
sg15
g5168
sg16
S'222350785583923200'
p5172
sg18
I18
sbs(S'18095847'
p5173
S'118152182263586816A'
tp5174
g4
(g5
g6
NtRp5175
(dp5176
g9
S'A'
sg10
g5173
sg11
Nsg12
S'objective'
p5177
sg14
I10
sg15
g5174
sg16
S'118152182263586816'
p5178
sg18
I0
sbs(S'17567520'
p5179
S'100016992559431680A'
tp5180
g4
(g5
g6
NtRp5181
(dp5182
g9
S'A'
sg10
g5179
sg11
Nsg12
S'objective'
p5183
sg14
I24
sg15
g5180
sg16
S'100016992559431680'
p5184
sg18
I0
sbs(S'353946567'
p5185
S'108201763772960769C'
tp5186
g4
(g5
g6
NtRp5187
(dp5188
g9
S'A'
sg10
g5185
sg11
Nsg12
S'objective'
p5189
sg14
I17
sg15
g5186
sg16
S'108201763772960769'
p5190
sg18
I16
sbs(S'143100038'
p5191
S'100290591446925312B'
tp5192
g4
(g5
g6
NtRp5193
(dp5194
g9
S'A'
sg10
g5191
sg11
Nsg12
S'negative'
p5195
sg14
I20
sg15
g5192
sg16
S'100290591446925312'
p5196
sg18
I19
sbs(S'346630939'
p5197
S'106901959566557186A'
tp5198
g4
(g5
g6
NtRp5199
(dp5200
g9
S'A'
sg10
g5197
sg11
Nsg12
S'objective'
p5201
sg14
I5
sg15
g5198
sg16
S'106901959566557186'
p5202
sg18
I0
sbs(S'165350893'
p5203
S'103158179306807296A'
tp5204
g4
(g5
g6
NtRp5205
(dp5206
g9
S'A'
sg10
g5203
sg11
Nsg12
S'objective'
p5207
sg14
I8
sg15
g5204
sg16
S'103158179306807296'
p5208
sg18
I0
sbs(S'577067868'
p5209
S'263533649285218304B'
tp5210
g4
(g5
g6
NtRp5211
(dp5212
g9
S'A'
sg10
g5209
sg11
Nsg12
S'negative'
p5213
sg14
I2
sg15
g5210
sg16
S'263533649285218304'
p5214
sg18
I2
sbs(S'153307673'
p5215
S'103429907421466624A'
tp5216
g4
(g5
g6
NtRp5217
(dp5218
g9
S'A'
sg10
g5215
sg11
Nsg12
S'objective'
p5219
sg14
I2
sg15
g5216
sg16
S'103429907421466624'
p5220
sg18
I0
sbs(S'859096723'
p5221
S'263996792373387264A'
tp5222
g4
(g5
g6
NtRp5223
(dp5224
g9
S'A'
sg10
g5221
sg11
Nsg12
S'objective'
p5225
sg14
I20
sg15
g5222
sg16
S'263996792373387264'
p5226
sg18
I0
sbs(S'395924563'
p5227
S'236560243843276801A'
tp5228
g4
(g5
g6
NtRp5229
(dp5230
g9
S'A'
sg10
g5227
sg11
Nsg12
S'objective'
p5231
sg14
I1
sg15
g5228
sg16
S'236560243843276801'
p5232
sg18
I0
sbs(S'228762215'
p5233
S'263621683632566273A'
tp5234
g4
(g5
g6
NtRp5235
(dp5236
g9
S'A'
sg10
g5233
sg11
Nsg12
S'objective'
p5237
sg14
I19
sg15
g5234
sg16
S'263621683632566273'
p5238
sg18
I0
sbs(S'135616590'
p5239
S'260896179838128129B'
tp5240
g4
(g5
g6
NtRp5241
(dp5242
g9
S'A'
sg10
g5239
sg11
Nsg12
S'positive'
p5243
sg14
I10
sg15
g5240
sg16
S'260896179838128129'
p5244
sg18
I10
sbs(S'114905640'
p5245
S'104743886278238209A'
tp5246
g4
(g5
g6
NtRp5247
(dp5248
g9
S'A'
sg10
g5245
sg11
Nsg12
S'objective'
p5249
sg14
I2
sg15
g5246
sg16
S'104743886278238209'
p5250
sg18
I0
sbs(S'382459056'
p5251
S'264169727134429186A'
tp5252
g4
(g5
g6
NtRp5253
(dp5254
g9
S'A'
sg10
g5251
sg11
Nsg12
S'objective'
p5255
sg14
I9
sg15
g5252
sg16
S'264169727134429186'
p5256
sg18
I0
sbs(S'21868696'
p5257
S'262537578459303936C'
tp5258
g4
(g5
g6
NtRp5259
(dp5260
g9
S'A'
sg10
g5257
sg11
Nsg12
S'objective'
p5261
sg14
I19
sg15
g5258
sg16
S'262537578459303936'
p5262
sg18
I7
sbs(S'346400200'
p5263
S'264204445036974081B'
tp5264
g4
(g5
g6
NtRp5265
(dp5266
g9
S'A'
sg10
g5263
sg11
Nsg12
S'positive'
p5267
sg14
I12
sg15
g5264
sg16
S'264204445036974081'
p5268
sg18
I11
sbs(S'242341937'
p5269
S'248370653286240256C'
tp5270
g4
(g5
g6
NtRp5271
(dp5272
g9
S'A'
sg10
g5269
sg11
Nsg12
S'positive'
p5273
sg14
I5
sg15
g5270
sg16
S'248370653286240256'
p5274
sg18
I5
sbs(S'25152395'
p5275
S'180732852973993984A'
tp5276
g4
(g5
g6
NtRp5277
(dp5278
g9
S'A'
sg10
g5275
sg11
Nsg12
S'objective'
p5279
sg14
I3
sg15
g5276
sg16
S'180732852973993984'
p5280
sg18
I0
sbs(S'260934314'
p5281
S'101257603157458944A'
tp5282
g4
(g5
g6
NtRp5283
(dp5284
g9
S'A'
sg10
g5281
sg11
Nsg12
S'objective'
p5285
sg14
I20
sg15
g5282
sg16
S'101257603157458944'
p5286
sg18
I0
sbs(S'127567306'
p5287
S'261452792298864640C'
tp5288
g4
(g5
g6
NtRp5289
(dp5290
g9
S'A'
sg10
g5287
sg11
Nsg12
S'positive'
p5291
sg14
I22
sg15
g5288
sg16
S'261452792298864640'
p5292
sg18
I22
sbs(S'557548188'
p5293
S'263158815116128256B'
tp5294
g4
(g5
g6
NtRp5295
(dp5296
g9
S'A'
sg10
g5293
sg11
Nsg12
S'positive'
p5297
sg14
I14
sg15
g5294
sg16
S'263158815116128256'
p5298
sg18
I10
sbs(S'59507141'
p5299
S'254381435228680193B'
tp5300
g4
(g5
g6
NtRp5301
(dp5302
g9
S'A'
sg10
g5299
sg11
Nsg12
S'positive'
p5303
sg14
I11
sg15
g5300
sg16
S'254381435228680193'
p5304
sg18
I9
sbs(S'167947794'
p5305
S'118167524167782401A'
tp5306
g4
(g5
g6
NtRp5307
(dp5308
g9
S'A'
sg10
g5305
sg11
Nsg12
S'objective'
p5309
sg14
I4
sg15
g5306
sg16
S'118167524167782401'
p5310
sg18
I0
sbs(S'805583215'
p5311
S'243497030423572480B'
tp5312
g4
(g5
g6
NtRp5313
(dp5314
g9
S'A'
sg10
g5311
sg11
Nsg12
S'positive'
p5315
sg14
I21
sg15
g5312
sg16
S'243497030423572480'
p5316
sg18
I18
sbs(S'135263715'
p5317
S'213573869846544385B'
tp5318
g4
(g5
g6
NtRp5319
(dp5320
g9
S'A'
sg10
g5317
sg11
Nsg12
S'positive'
p5321
sg14
I20
sg15
g5318
sg16
S'213573869846544385'
p5322
sg18
I20
sbs(S'112595760'
p5323
S'108034287944744960D'
tp5324
g4
(g5
g6
NtRp5325
(dp5326
g9
S'A'
sg10
g5323
sg11
Nsg12
S'positive'
p5327
sg14
I14
sg15
g5324
sg16
S'108034287944744960'
p5328
sg18
I13
sbs(S'21411063'
p5329
S'108277951220551680C'
tp5330
g4
(g5
g6
NtRp5331
(dp5332
g9
S'A'
sg10
g5329
sg11
Nsg12
S'objective'
p5333
sg14
I28
sg15
g5330
sg16
S'108277951220551680'
p5334
sg18
I22
sbs(S'330820589'
p5335
S'112942221946404864A'
tp5336
g4
(g5
g6
NtRp5337
(dp5338
g9
S'A'
sg10
g5335
sg11
Nsg12
S'objective'
p5339
sg14
I22
sg15
g5336
sg16
S'112942221946404864'
p5340
sg18
I0
sbs(S'107628564'
p5341
S'264068419480088576B'
tp5342
g4
(g5
g6
NtRp5343
(dp5344
g9
S'A'
sg10
g5341
sg11
Nsg12
S'positive'
p5345
sg14
I18
sg15
g5342
sg16
S'264068419480088576'
p5346
sg18
I18
sbs(S'186289333'
p5347
S'102933220319956992A'
tp5348
g4
(g5
g6
NtRp5349
(dp5350
g9
S'A'
sg10
g5347
sg11
Nsg12
S'negative'
p5351
sg14
I2
sg15
g5348
sg16
S'102933220319956992'
p5352
sg18
I0
sbs(S'34877293'
p5353
S'100001362305236993B'
tp5354
g4
(g5
g6
NtRp5355
(dp5356
g9
S'A'
sg10
g5353
sg11
Nsg12
S'positive'
p5357
sg14
I1
sg15
g5354
sg16
S'100001362305236993'
p5358
sg18
I1
sbs(S'337700729'
p5359
S'248401241196085248E'
tp5360
g4
(g5
g6
NtRp5361
(dp5362
g9
S'A'
sg10
g5359
sg11
Nsg12
S'objective'
p5363
sg14
I16
sg15
g5360
sg16
S'248401241196085248'
p5364
sg18
I10
sbs(S'76587091'
p5365
S'264251347195551744D'
tp5366
g4
(g5
g6
NtRp5367
(dp5368
g9
S'A'
sg10
g5365
sg11
Nsg12
S'objective'
p5369
sg14
I19
sg15
g5366
sg16
S'264251347195551744'
p5370
sg18
I16
sbs(S'866709174'
p5371
S'262501520535339008D'
tp5372
g4
(g5
g6
NtRp5373
(dp5374
g9
S'A'
sg10
g5371
sg11
Nsg12
S'positive'
p5375
sg14
I9
sg15
g5372
sg16
S'262501520535339008'
p5376
sg18
I8
sbs(S'297382357'
p5377
S'212454254445727744D'
tp5378
g4
(g5
g6
NtRp5379
(dp5380
g9
S'A'
sg10
g5377
sg11
Nsg12
S'objective'
p5381
sg14
I23
sg15
g5378
sg16
S'212454254445727744'
p5382
sg18
I17
sbs(S'225028029'
p5383
S'259939714981842944A'
tp5384
g4
(g5
g6
NtRp5385
(dp5386
g9
S'A'
sg10
g5383
sg11
Nsg12
S'objective'
p5387
sg14
I34
sg15
g5384
sg16
S'259939714981842944'
p5388
sg18
I0
sbs(S'16397103'
p5389
S'101438889968939008C'
tp5390
g4
(g5
g6
NtRp5391
(dp5392
g9
S'A'
sg10
g5389
sg11
Nsg12
S'objective'
p5393
sg14
I15
sg15
g5390
sg16
S'101438889968939008'
p5394
sg18
I12
sbs(S'329317762'
p5395
S'118152301532823552C'
tp5396
g4
(g5
g6
NtRp5397
(dp5398
g9
S'A'
sg10
g5395
sg11
Nsg12
S'objective'
p5399
sg14
I11
sg15
g5396
sg16
S'118152301532823552'
p5400
sg18
I4
sbs(S'321496438'
p5401
S'167545861423890432C'
tp5402
g4
(g5
g6
NtRp5403
(dp5404
g9
S'A'
sg10
g5401
sg11
Nsg12
S'objective'
p5405
sg14
I20
sg15
g5402
sg16
S'167545861423890432'
p5406
sg18
I4
sbs(S'103386218'
p5407
S'246271122696450048A'
tp5408
g4
(g5
g6
NtRp5409
(dp5410
g9
S'A'
sg10
g5407
sg11
Nsg12
S'objective'
p5411
sg14
I4
sg15
g5408
sg16
S'246271122696450048'
p5412
sg18
I0
sbs(S'511191300'
p5413
S'263743557779734528A'
tp5414
g4
(g5
g6
NtRp5415
(dp5416
g9
S'A'
sg10
g5413
sg11
Nsg12
S'objective'
p5417
sg14
I13
sg15
g5414
sg16
S'263743557779734528'
p5418
sg18
I0
sbs(S'85841896'
p5419
S'248132983159132160A'
tp5420
g4
(g5
g6
NtRp5421
(dp5422
g9
S'A'
sg10
g5419
sg11
Nsg12
S'objective'
p5423
sg14
I0
sg15
g5420
sg16
S'248132983159132160'
p5424
sg18
I0
sbs(S'116848357'
p5425
S'257292826776322048D'
tp5426
g4
(g5
g6
NtRp5427
(dp5428
g9
S'A'
sg10
g5425
sg11
Nsg12
S'objective'
p5429
sg14
I16
sg15
g5426
sg16
S'257292826776322048'
p5430
sg18
I15
sbs(S'170938747'
p5431
S'263816911874314240B'
tp5432
g4
(g5
g6
NtRp5433
(dp5434
g9
S'A'
sg10
g5431
sg11
Nsg12
S'negative'
p5435
sg14
I3
sg15
g5432
sg16
S'263816911874314240'
p5436
sg18
I1
sbs(S'158833342'
p5437
S'108292425813995520A'
tp5438
g4
(g5
g6
NtRp5439
(dp5440
g9
S'A'
sg10
g5437
sg11
Nsg12
S'objective'
p5441
sg14
I12
sg15
g5438
sg16
S'108292425813995520'
p5442
sg18
I0
sbs(S'281258276'
p5443
S'100348025205030913E'
tp5444
g4
(g5
g6
NtRp5445
(dp5446
g9
S'A'
sg10
g5443
sg11
Nsg12
S'objective'
p5447
sg14
I18
sg15
g5444
sg16
S'100348025205030913'
p5448
sg18
I13
sbs(S'228498230'
p5449
S'108261715120099328B'
tp5450
g4
(g5
g6
NtRp5451
(dp5452
g9
S'A'
sg10
g5449
sg11
Nsg12
S'positive'
p5453
sg14
I2
sg15
g5450
sg16
S'108261715120099328'
p5454
sg18
I2
sbs(S'347915191'
p5455
S'100274052534501376B'
tp5456
g4
(g5
g6
NtRp5457
(dp5458
g9
S'A'
sg10
g5455
sg11
Nsg12
S'positive'
p5459
sg14
I1
sg15
g5456
sg16
S'100274052534501376'
p5460
sg18
I1
sbs(S'252307187'
p5461
S'103158253193666560A'
tp5462
g4
(g5
g6
NtRp5463
(dp5464
g9
S'A'
sg10
g5461
sg11
Nsg12
S'objective'
p5465
sg14
I2
sg15
g5462
sg16
S'103158253193666560'
p5466
sg18
I0
sbs(S'75459354'
p5467
S'264086181954859008C'
tp5468
g4
(g5
g6
NtRp5469
(dp5470
g9
S'A'
sg10
g5467
sg11
Nsg12
S'objective'
p5471
sg14
I13
sg15
g5468
sg16
S'264086181954859008'
p5472
sg18
I5
sbs(S'119519641'
p5473
S'263962593155219456E'
tp5474
g4
(g5
g6
NtRp5475
(dp5476
g9
S'A'
sg10
g5473
sg11
Nsg12
S'objective'
p5477
sg14
I20
sg15
g5474
sg16
S'263962593155219456'
p5478
sg18
I12
sbs(S'412870727'
p5479
S'261685399196405761B'
tp5480
g4
(g5
g6
NtRp5481
(dp5482
g9
S'A'
sg10
g5479
sg11
Nsg12
S'positive'
p5483
sg14
I17
sg15
g5480
sg16
S'261685399196405761'
p5484
sg18
I17
sbs(S'911747616'
p5485
S'264070712468320256B'
tp5486
g4
(g5
g6
NtRp5487
(dp5488
g9
S'A'
sg10
g5485
sg11
Nsg12
S'positive'
p5489
sg14
I5
sg15
g5486
sg16
S'264070712468320256'
p5490
sg18
I3
sbs(S'612415338'
p5491
S'263489626793185280A'
tp5492
g4
(g5
g6
NtRp5493
(dp5494
g9
S'A'
sg10
g5491
sg11
Nsg12
S'objective'
p5495
sg14
I9
sg15
g5492
sg16
S'263489626793185280'
p5496
sg18
I0
sbs(S'267357551'
p5497
S'260832035642413056B'
tp5498
g4
(g5
g6
NtRp5499
(dp5500
g9
S'A'
sg10
g5497
sg11
Nsg12
S'positive'
p5501
sg14
I15
sg15
g5498
sg16
S'260832035642413056'
p5502
sg18
I14
sbs(S'349109660'
p5503
S'101454064570732545G'
tp5504
g4
(g5
g6
NtRp5505
(dp5506
g9
S'A'
sg10
g5503
sg11
Nsg12
S'objective'
p5507
sg14
I23
sg15
g5504
sg16
S'101454064570732545'
p5508
sg18
I18
sbs(S'276816155'
p5509
S'111054768922832896A'
tp5510
g4
(g5
g6
NtRp5511
(dp5512
g9
S'A'
sg10
g5509
sg11
Nsg12
S'objective'
p5513
sg14
I0
sg15
g5510
sg16
S'111054768922832896'
p5514
sg18
I0
sbs(S'209682819'
p5515
S'263640792415997953A'
tp5516
g4
(g5
g6
NtRp5517
(dp5518
g9
S'A'
sg10
g5515
sg11
Nsg12
S'objective'
p5519
sg14
I19
sg15
g5516
sg16
S'263640792415997953'
p5520
sg18
I0
sbs(S'62417515'
p5521
S'261119659175206912C'
tp5522
g4
(g5
g6
NtRp5523
(dp5524
g9
S'A'
sg10
g5521
sg11
Nsg12
S'objective'
p5525
sg14
I19
sg15
g5522
sg16
S'261119659175206912'
p5526
sg18
I2
sbs(S'167947794'
p5527
S'118167524167782401F'
tp5528
g4
(g5
g6
NtRp5529
(dp5530
g9
S'A'
sg10
g5527
sg11
Nsg12
S'negative'
p5531
sg14
I19
sg15
g5528
sg16
S'118167524167782401'
p5532
sg18
I19
sbs(S'168793226'
p5533
S'104576641904279552E'
tp5534
g4
(g5
g6
NtRp5535
(dp5536
g9
S'A'
sg10
g5533
sg11
Nsg12
S'positive'
p5537
sg14
I19
sg15
g5534
sg16
S'104576641904279552'
p5538
sg18
I14
sbs(S'18684224'
p5539
S'103250430980665345A'
tp5540
g4
(g5
g6
NtRp5541
(dp5542
g9
S'A'
sg10
g5539
sg11
Nsg12
S'objective'
p5543
sg14
I1
sg15
g5540
sg16
S'103250430980665345'
p5544
sg18
I0
sbs(S'27982261'
p5545
S'103157260112510976A'
tp5546
g4
(g5
g6
NtRp5547
(dp5548
g9
S'A'
sg10
g5545
sg11
Nsg12
S'objective'
p5549
sg14
I8
sg15
g5546
sg16
S'103157260112510976'
p5550
sg18
I0
sbs(S'345548182'
p5551
S'216098777235329024C'
tp5552
g4
(g5
g6
NtRp5553
(dp5554
g9
S'A'
sg10
g5551
sg11
Nsg12
S'objective'
p5555
sg14
I11
sg15
g5552
sg16
S'216098777235329024'
p5556
sg18
I6
sbs(S'165350893'
p5557
S'103158179306807296B'
tp5558
g4
(g5
g6
NtRp5559
(dp5560
g9
S'A'
sg10
g5557
sg11
Nsg12
S'positive'
p5561
sg14
I11
sg15
g5558
sg16
S'103158179306807296'
p5562
sg18
I9
sbs(S'19262942'
p5563
S'118167512838979584B'
tp5564
g4
(g5
g6
NtRp5565
(dp5566
g9
S'A'
sg10
g5563
sg11
Nsg12
S'negative'
p5567
sg14
I5
sg15
g5564
sg16
S'118167512838979584'
p5568
sg18
I5
sbs(S'732673236'
p5569
S'263461390172442624C'
tp5570
g4
(g5
g6
NtRp5571
(dp5572
g9
S'A'
sg10
g5569
sg11
Nsg12
S'objective'
p5573
sg14
I16
sg15
g5570
sg16
S'263461390172442624'
p5574
sg18
I15
sbs(S'167482641'
p5575
S'262921934981971970F'
tp5576
g4
(g5
g6
NtRp5577
(dp5578
g9
S'A'
sg10
g5575
sg11
Nsg12
S'positive'
p5579
sg14
I20
sg15
g5576
sg16
S'262921934981971970'
p5580
sg18
I20
sbs(S'400051029'
p5581
S'259655323122556929A'
tp5582
g4
(g5
g6
NtRp5583
(dp5584
g9
S'A'
sg10
g5581
sg11
Nsg12
S'objective'
p5585
sg14
I16
sg15
g5582
sg16
S'259655323122556929'
p5586
sg18
I0
sbs(S'498268108'
p5587
S'262684431821701120B'
tp5588
g4
(g5
g6
NtRp5589
(dp5590
g9
S'A'
sg10
g5587
sg11
Nsg12
S'objective'
p5591
sg14
I21
sg15
g5588
sg16
S'262684431821701120'
p5592
sg18
I1
sbs(S'417509923'
p5593
S'263366711196123137D'
tp5594
g4
(g5
g6
NtRp5595
(dp5596
g9
S'A'
sg10
g5593
sg11
Nsg12
S'negative'
p5597
sg14
I19
sg15
g5594
sg16
S'263366711196123137'
p5598
sg18
I19
sbs(S'54395259'
p5599
S'100461938533863424C'
tp5600
g4
(g5
g6
NtRp5601
(dp5602
g9
S'A'
sg10
g5599
sg11
Nsg12
S'objective'
p5603
sg14
I11
sg15
g5600
sg16
S'100461938533863424'
p5604
sg18
I2
sbs(S'113726128'
p5605
S'113365713082793984D'
tp5606
g4
(g5
g6
NtRp5607
(dp5608
g9
S'A'
sg10
g5605
sg11
Nsg12
S'positive'
p5609
sg14
I11
sg15
g5606
sg16
S'113365713082793984'
p5610
sg18
I10
sbs(S'134569530'
p5611
S'104306129428946944A'
tp5612
g4
(g5
g6
NtRp5613
(dp5614
g9
S'A'
sg10
g5611
sg11
Nsg12
S'objective'
p5615
sg14
I20
sg15
g5612
sg16
S'104306129428946944'
p5616
sg18
I0
sbs(S'61771813'
p5617
S'261035336895979520A'
tp5618
g4
(g5
g6
NtRp5619
(dp5620
g9
S'A'
sg10
g5617
sg11
Nsg12
S'objective'
p5621
sg14
I16
sg15
g5618
sg16
S'261035336895979520'
p5622
sg18
I0
sbs(S'223630163'
p5623
S'100348089285607425A'
tp5624
g4
(g5
g6
NtRp5625
(dp5626
g9
S'A'
sg10
g5623
sg11
Nsg12
S'objective'
p5627
sg14
I5
sg15
g5624
sg16
S'100348089285607425'
p5628
sg18
I0
sbs(S'19262942'
p5629
S'118167512838979584C'
tp5630
g4
(g5
g6
NtRp5631
(dp5632
g9
S'A'
sg10
g5629
sg11
Nsg12
S'objective'
p5633
sg14
I17
sg15
g5630
sg16
S'118167512838979584'
p5634
sg18
I6
sbs(S'60652575'
p5635
S'104743986358530048A'
tp5636
g4
(g5
g6
NtRp5637
(dp5638
g9
S'A'
sg10
g5635
sg11
Nsg12
S'objective'
p5639
sg14
I7
sg15
g5636
sg16
S'104743986358530048'
p5640
sg18
I0
sbs(S'38612928'
p5641
S'119494324760231937A'
tp5642
g4
(g5
g6
NtRp5643
(dp5644
g9
S'A'
sg10
g5641
sg11
Nsg12
S'objective'
p5645
sg14
I5
sg15
g5642
sg16
S'119494324760231937'
p5646
sg18
I0
sbs(S'29518051'
p5647
S'246859125353488384B'
tp5648
g4
(g5
g6
NtRp5649
(dp5650
g9
S'A'
sg10
g5647
sg11
Nsg12
S'positive'
p5651
sg14
I2
sg15
g5648
sg16
S'246859125353488384'
p5652
sg18
I1
sbs(S'67036119'
p5653
S'104682745376161792A'
tp5654
g4
(g5
g6
NtRp5655
(dp5656
g9
S'A'
sg10
g5653
sg11
Nsg12
S'positive'
p5657
sg14
I0
sg15
g5654
sg16
S'104682745376161792'
p5658
sg18
I0
sbs(S'14918147'
p5659
S'101450572363857921C'
tp5660
g4
(g5
g6
NtRp5661
(dp5662
g9
S'A'
sg10
g5659
sg11
Nsg12
S'objective'
p5663
sg14
I18
sg15
g5660
sg16
S'101450572363857921'
p5664
sg18
I4
sbs(S'25152395'
p5665
S'180732852973993984B'
tp5666
g4
(g5
g6
NtRp5667
(dp5668
g9
S'A'
sg10
g5665
sg11
Nsg12
S'positive'
p5669
sg14
I4
sg15
g5666
sg16
S'180732852973993984'
p5670
sg18
I4
sbs(S'185428677'
p5671
S'108232564933804032B'
tp5672
g4
(g5
g6
NtRp5673
(dp5674
g9
S'A'
sg10
g5671
sg11
Nsg12
S'positive'
p5675
sg14
I9
sg15
g5672
sg16
S'108232564933804032'
p5676
sg18
I8
sbs(S'50025826'
p5677
S'101451016377085952C'
tp5678
g4
(g5
g6
NtRp5679
(dp5680
g9
S'A'
sg10
g5677
sg11
Nsg12
S'objective'
p5681
sg14
I13
sg15
g5678
sg16
S'101451016377085952'
p5682
sg18
I12
sbs(S'17680681'
p5683
S'156387292737568768C'
tp5684
g4
(g5
g6
NtRp5685
(dp5686
g9
S'A'
sg10
g5683
sg11
Nsg12
S'objective'
p5687
sg14
I23
sg15
g5684
sg16
S'156387292737568768'
p5688
sg18
I20
sbs(S'228498230'
p5689
S'108261715120099328C'
tp5690
g4
(g5
g6
NtRp5691
(dp5692
g9
S'A'
sg10
g5689
sg11
Nsg12
S'objective'
p5693
sg14
I15
sg15
g5690
sg16
S'108261715120099328'
p5694
sg18
I3
sbs(S'77088549'
p5695
S'263451293933260800A'
tp5696
g4
(g5
g6
NtRp5697
(dp5698
g9
S'A'
sg10
g5695
sg11
Nsg12
S'objective'
p5699
sg14
I1
sg15
g5696
sg16
S'263451293933260800'
p5700
sg18
I0
sbs(S'183027479'
p5701
S'263973724288602112A'
tp5702
g4
(g5
g6
NtRp5703
(dp5704
g9
S'A'
sg10
g5701
sg11
Nsg12
S'objective'
p5705
sg14
I6
sg15
g5702
sg16
S'263973724288602112'
p5706
sg18
I0
sbs(S'170417924'
p5707
S'108261821235990528A'
tp5708
g4
(g5
g6
NtRp5709
(dp5710
g9
S'A'
sg10
g5707
sg11
Nsg12
S'objective'
p5711
sg14
I2
sg15
g5708
sg16
S'108261821235990528'
p5712
sg18
I0
sbs(S'346235321'
p5713
S'248144864997421056B'
tp5714
g4
(g5
g6
NtRp5715
(dp5716
g9
S'A'
sg10
g5713
sg11
Nsg12
S'negative'
p5717
sg14
I13
sg15
g5714
sg16
S'248144864997421056'
p5718
sg18
I12
sbs(S'25592605'
p5719
S'260565210761408512A'
tp5720
g4
(g5
g6
NtRp5721
(dp5722
g9
S'A'
sg10
g5719
sg11
Nsg12
S'objective'
p5723
sg14
I11
sg15
g5720
sg16
S'260565210761408512'
p5724
sg18
I0
sbs(S'104504069'
p5725
S'222708587808555008B'
tp5726
g4
(g5
g6
NtRp5727
(dp5728
g9
S'A'
sg10
g5725
sg11
Nsg12
S'positive'
p5729
sg14
I3
sg15
g5726
sg16
S'222708587808555008'
p5730
sg18
I2
sbs(S'50025826'
p5731
S'101451016377085952D'
tp5732
g4
(g5
g6
NtRp5733
(dp5734
g9
S'A'
sg10
g5731
sg11
Nsg12
S'positive'
p5735
sg14
I15
sg15
g5732
sg16
S'101451016377085952'
p5736
sg18
I14
sbs(S'45567437'
p5737
S'261086869503238144A'
tp5738
g4
(g5
g6
NtRp5739
(dp5740
g9
S'A'
sg10
g5737
sg11
Nsg12
S'objective'
p5741
sg14
I8
sg15
g5738
sg16
S'261086869503238144'
p5742
sg18
I0
sbs(S'98627870'
p5743
S'103217677996277760C'
tp5744
g4
(g5
g6
NtRp5745
(dp5746
g9
S'A'
sg10
g5743
sg11
Nsg12
S'objective'
p5747
sg14
I13
sg15
g5744
sg16
S'103217677996277760'
p5748
sg18
I8
sbs(S'51755720'
p5749
S'103174922511192064A'
tp5750
g4
(g5
g6
NtRp5751
(dp5752
g9
S'A'
sg10
g5749
sg11
Nsg12
S'positive'
p5753
sg14
I1
sg15
g5750
sg16
S'103174922511192064'
p5754
sg18
I0
sbs(S'20645542'
p5755
S'261631092539392000C'
tp5756
g4
(g5
g6
NtRp5757
(dp5758
g9
S'A'
sg10
g5755
sg11
Nsg12
S'objective'
p5759
sg14
I21
sg15
g5756
sg16
S'261631092539392000'
p5760
sg18
I9
sbs(S'342501741'
p5761
S'103142957296795648E'
tp5762
g4
(g5
g6
NtRp5763
(dp5764
g9
S'A'
sg10
g5761
sg11
Nsg12
S'objective'
p5765
sg14
I25
sg15
g5762
sg16
S'103142957296795648'
p5766
sg18
I6
sbs(S'50909879'
p5767
S'264200442886623232E'
tp5768
g4
(g5
g6
NtRp5769
(dp5770
g9
S'A'
sg10
g5767
sg11
Nsg12
S'objective'
p5771
sg14
I16
sg15
g5768
sg16
S'264200442886623232'
p5772
sg18
I8
sbs(S'101465967'
p5773
S'227992945368915969A'
tp5774
g4
(g5
g6
NtRp5775
(dp5776
g9
S'A'
sg10
g5773
sg11
Nsg12
S'objective'
p5777
sg14
I18
sg15
g5774
sg16
S'227992945368915969'
p5778
sg18
I0
sbs(S'61771813'
p5779
S'240366397790765056B'
tp5780
g4
(g5
g6
NtRp5781
(dp5782
g9
S'A'
sg10
g5779
sg11
Nsg12
S'negative'
p5783
sg14
I2
sg15
g5780
sg16
S'240366397790765056'
p5784
sg18
I1
sbs(S'246428848'
p5785
S'104517341710262272A'
tp5786
g4
(g5
g6
NtRp5787
(dp5788
g9
S'A'
sg10
g5785
sg11
Nsg12
S'positive'
p5789
sg14
I1
sg15
g5786
sg16
S'104517341710262272'
p5790
sg18
I0
sbs(S'261836654'
p5791
S'264132276349190146B'
tp5792
g4
(g5
g6
NtRp5793
(dp5794
g9
S'A'
sg10
g5791
sg11
Nsg12
S'positive'
p5795
sg14
I23
sg15
g5792
sg16
S'264132276349190146'
p5796
sg18
I19
sbs(S'248839886'
p5797
S'262522947984572416A'
tp5798
g4
(g5
g6
NtRp5799
(dp5800
g9
S'A'
sg10
g5797
sg11
Nsg12
S'objective'
p5801
sg14
I2
sg15
g5798
sg16
S'262522947984572416'
p5802
sg18
I0
sbs(S'31037343'
p5803
S'238453939270471680A'
tp5804
g4
(g5
g6
NtRp5805
(dp5806
g9
S'A'
sg10
g5803
sg11
Nsg12
S'objective'
p5807
sg14
I4
sg15
g5804
sg16
S'238453939270471680'
p5808
sg18
I0
sbs(S'27982261'
p5809
S'103157260112510976B'
tp5810
g4
(g5
g6
NtRp5811
(dp5812
g9
S'A'
sg10
g5809
sg11
Nsg12
S'negative'
p5813
sg14
I10
sg15
g5810
sg16
S'103157260112510976'
p5814
sg18
I9
sbs(S'99260593'
p5815
S'259983669446455296C'
tp5816
g4
(g5
g6
NtRp5817
(dp5818
g9
S'A'
sg10
g5815
sg11
Nsg12
S'objective'
p5819
sg14
I22
sg15
g5816
sg16
S'259983669446455296'
p5820
sg18
I6
sbs(S'205180397'
p5821
S'262994889929785344C'
tp5822
g4
(g5
g6
NtRp5823
(dp5824
g9
S'A'
sg10
g5821
sg11
Nsg12
S'objective'
p5825
sg14
I16
sg15
g5822
sg16
S'262994889929785344'
p5826
sg18
I6
sbs(S'167482641'
p5827
S'262921934981971970A'
tp5828
g4
(g5
g6
NtRp5829
(dp5830
g9
S'A'
sg10
g5827
sg11
Nsg12
S'objective'
p5831
sg14
I0
sg15
g5828
sg16
S'262921934981971970'
p5832
sg18
I0
sbs(S'259074027'
p5833
S'263258642151780352C'
tp5834
g4
(g5
g6
NtRp5835
(dp5836
g9
S'A'
sg10
g5833
sg11
Nsg12
S'objective'
p5837
sg14
I18
sg15
g5834
sg16
S'263258642151780352'
p5838
sg18
I10
sbs(S'61853316'
p5839
S'103081947517034496A'
tp5840
g4
(g5
g6
NtRp5841
(dp5842
g9
S'A'
sg10
g5839
sg11
Nsg12
S'objective'
p5843
sg14
I12
sg15
g5840
sg16
S'103081947517034496'
p5844
sg18
I0
sbs(S'296502129'
p5845
S'103263786764480512A'
tp5846
g4
(g5
g6
NtRp5847
(dp5848
g9
S'A'
sg10
g5845
sg11
Nsg12
S'objective'
p5849
sg14
I1
sg15
g5846
sg16
S'103263786764480512'
p5850
sg18
I0
sbs(S'263529559'
p5851
S'262788466226655232B'
tp5852
g4
(g5
g6
NtRp5853
(dp5854
g9
S'A'
sg10
g5851
sg11
Nsg12
S'objective'
p5855
sg14
I14
sg15
g5852
sg16
S'262788466226655232'
p5856
sg18
I3
sbs(S'288690722'
p5857
S'183833135430111232C'
tp5858
g4
(g5
g6
NtRp5859
(dp5860
g9
S'A'
sg10
g5857
sg11
Nsg12
S'objective'
p5861
sg14
I17
sg15
g5858
sg16
S'183833135430111232'
p5862
sg18
I6
sbs(S'539688945'
p5863
S'233428282270429184B'
tp5864
g4
(g5
g6
NtRp5865
(dp5866
g9
S'A'
sg10
g5863
sg11
Nsg12
S'positive'
p5867
sg14
I17
sg15
g5864
sg16
S'233428282270429184'
p5868
sg18
I16
sbs(S'69948216'
p5869
S'228698918727340032F'
tp5870
g4
(g5
g6
NtRp5871
(dp5872
g9
S'A'
sg10
g5869
sg11
Nsg12
S'negative'
p5873
sg14
I9
sg15
g5870
sg16
S'228698918727340032'
p5874
sg18
I9
sbs(S'114577718'
p5875
S'111356705631240192A'
tp5876
g4
(g5
g6
NtRp5877
(dp5878
g9
S'A'
sg10
g5875
sg11
Nsg12
S'positive'
p5879
sg14
I0
sg15
g5876
sg16
S'111356705631240192'
p5880
sg18
I0
sbs(S'181241054'
p5881
S'257683804074958848B'
tp5882
g4
(g5
g6
NtRp5883
(dp5884
g9
S'A'
sg10
g5881
sg11
Nsg12
S'negative'
p5885
sg14
I23
sg15
g5882
sg16
S'257683804074958848'
p5886
sg18
I22
sbs(S'356494473'
p5887
S'113455325029482496A'
tp5888
g4
(g5
g6
NtRp5889
(dp5890
g9
S'A'
sg10
g5887
sg11
Nsg12
S'objective'
p5891
sg14
I1
sg15
g5888
sg16
S'113455325029482496'
p5892
sg18
I0
sbs(S'63532465'
p5893
S'100665193335500800F'
tp5894
g4
(g5
g6
NtRp5895
(dp5896
g9
S'A'
sg10
g5893
sg11
Nsg12
S'negative'
p5897
sg14
I20
sg15
g5894
sg16
S'100665193335500800'
p5898
sg18
I18
sbs(S'43598498'
p5899
S'118152030320734210C'
tp5900
g4
(g5
g6
NtRp5901
(dp5902
g9
S'A'
sg10
g5899
sg11
Nsg12
S'objective'
p5903
sg14
I15
sg15
g5900
sg16
S'118152030320734210'
p5904
sg18
I8
sbs(S'249320924'
p5905
S'100046752241041409E'
tp5906
g4
(g5
g6
NtRp5907
(dp5908
g9
S'A'
sg10
g5905
sg11
Nsg12
S'objective'
p5909
sg14
I22
sg15
g5906
sg16
S'100046752241041409'
p5910
sg18
I22
sbs(S'851443645'
p5911
S'252108209513455616A'
tp5912
g4
(g5
g6
NtRp5913
(dp5914
g9
S'A'
sg10
g5911
sg11
Nsg12
S'objective'
p5915
sg14
I3
sg15
g5912
sg16
S'252108209513455616'
p5916
sg18
I0
sbs(S'152556346'
p5917
S'260051608686170112C'
tp5918
g4
(g5
g6
NtRp5919
(dp5920
g9
S'A'
sg10
g5917
sg11
Nsg12
S'objective'
p5921
sg14
I12
sg15
g5918
sg16
S'260051608686170112'
p5922
sg18
I3
sbs(S'42828974'
p5923
S'110195528733704192A'
tp5924
g4
(g5
g6
NtRp5925
(dp5926
g9
S'A'
sg10
g5923
sg11
Nsg12
S'objective'
p5927
sg14
I12
sg15
g5924
sg16
S'110195528733704192'
p5928
sg18
I0
sbs(S'753528871'
p5929
S'264089658097549312E'
tp5930
g4
(g5
g6
NtRp5931
(dp5932
g9
S'A'
sg10
g5929
sg11
Nsg12
S'objective'
p5933
sg14
I23
sg15
g5930
sg16
S'264089658097549312'
p5934
sg18
I23
sbs(S'147606409'
p5935
S'111483585390854144C'
tp5936
g4
(g5
g6
NtRp5937
(dp5938
g9
S'A'
sg10
g5935
sg11
Nsg12
S'objective'
p5939
sg14
I14
sg15
g5936
sg16
S'111483585390854144'
p5940
sg18
I4
sbs(S'296502129'
p5941
S'103263786764480512C'
tp5942
g4
(g5
g6
NtRp5943
(dp5944
g9
S'A'
sg10
g5941
sg11
Nsg12
S'objective'
p5945
sg14
I25
sg15
g5942
sg16
S'103263786764480512'
p5946
sg18
I3
sbs(S'741810102'
p5947
S'250639672290725888A'
tp5948
g4
(g5
g6
NtRp5949
(dp5950
g9
S'A'
sg10
g5947
sg11
Nsg12
S'objective'
p5951
sg14
I20
sg15
g5948
sg16
S'250639672290725888'
p5952
sg18
I0
sbs(S'65732160'
p5953
S'103114987739942912B'
tp5954
g4
(g5
g6
NtRp5955
(dp5956
g9
S'A'
sg10
g5953
sg11
Nsg12
S'objective'
p5957
sg14
I21
sg15
g5954
sg16
S'103114987739942912'
p5958
sg18
I2
sbs(S'246222514'
p5959
S'107189808840978432A'
tp5960
g4
(g5
g6
NtRp5961
(dp5962
g9
S'A'
sg10
g5959
sg11
Nsg12
S'objective'
p5963
sg14
I10
sg15
g5960
sg16
S'107189808840978432'
p5964
sg18
I0
sbs(S'177344943'
p5965
S'198886420125990912B'
tp5966
g4
(g5
g6
NtRp5967
(dp5968
g9
S'A'
sg10
g5965
sg11
Nsg12
S'positive'
p5969
sg14
I3
sg15
g5966
sg16
S'198886420125990912'
p5970
sg18
I2
sbs(S'58830533'
p5971
S'264003998720348160C'
tp5972
g4
(g5
g6
NtRp5973
(dp5974
g9
S'A'
sg10
g5971
sg11
Nsg12
S'objective'
p5975
sg14
I24
sg15
g5972
sg16
S'264003998720348160'
p5976
sg18
I11
sbs(S'394763270'
p5977
S'263984722617712640D'
tp5978
g4
(g5
g6
NtRp5979
(dp5980
g9
S'A'
sg10
g5977
sg11
Nsg12
S'positive'
p5981
sg14
I18
sg15
g5978
sg16
S'263984722617712640'
p5982
sg18
I18
sbs(S'517316037'
p5983
S'205234689936592896A'
tp5984
g4
(g5
g6
NtRp5985
(dp5986
g9
S'A'
sg10
g5983
sg11
Nsg12
S'objective'
p5987
sg14
I22
sg15
g5984
sg16
S'205234689936592896'
p5988
sg18
I0
sbs(S'16267008'
p5989
S'103219393776992256C'
tp5990
g4
(g5
g6
NtRp5991
(dp5992
g9
S'A'
sg10
g5989
sg11
Nsg12
S'objective'
p5993
sg14
I10
sg15
g5990
sg16
S'103219393776992256'
p5994
sg18
I4
sbs(S'342501741'
p5995
S'103142957296795648B'
tp5996
g4
(g5
g6
NtRp5997
(dp5998
g9
S'A'
sg10
g5995
sg11
Nsg12
S'neutral'
p5999
sg14
I1
sg15
g5996
sg16
S'103142957296795648'
p6000
sg18
I1
sbs(S'324748107'
p6001
S'100517814976266242B'
tp6002
g4
(g5
g6
NtRp6003
(dp6004
g9
S'A'
sg10
g6001
sg11
Nsg12
S'negative'
p6005
sg14
I3
sg15
g6002
sg16
S'100517814976266242'
p6006
sg18
I1
sbs(S'838165111'
p6007
S'264112073238257664C'
tp6008
g4
(g5
g6
NtRp6009
(dp6010
g9
S'A'
sg10
g6007
sg11
Nsg12
S'objective'
p6011
sg14
I15
sg15
g6008
sg16
S'264112073238257664'
p6012
sg18
I7
sbs.